ARM GAS  C:\Users\Javier\AppData\Local\Temp\ccFGMuYp.s 			page 1


   1              		.syntax unified
   2              		.cpu cortex-m3
   3              		.fpu softvfp
   4              		.eabi_attribute 20, 1
   5              		.eabi_attribute 21, 1
   6              		.eabi_attribute 23, 3
   7              		.eabi_attribute 24, 1
   8              		.eabi_attribute 25, 1
   9              		.eabi_attribute 26, 1
  10              		.eabi_attribute 30, 1
  11              		.eabi_attribute 34, 1
  12              		.eabi_attribute 18, 4
  13              		.thumb
  14              		.file	"gnome_debug.c"
  15              		.text
  16              	.Ltext0:
  17              		.cfi_sections	.debug_frame
  18              		.section	.text.gnome_debug_init,"ax",%progbits
  19              		.align	2
  20              		.global	gnome_debug_init
  21              		.thumb
  22              		.thumb_func
  23              		.type	gnome_debug_init, %function
  24              	gnome_debug_init:
  25              	.LFB63:
  26              		.file 1 ".\\gnome_debug.c"
   1:.\gnome_debug.c **** /* ========================================
   2:.\gnome_debug.c ****  *
   3:.\gnome_debug.c ****  * Copyright YOUR COMPANY, THE YEAR
   4:.\gnome_debug.c ****  * All Rights Reserved
   5:.\gnome_debug.c ****  * UNPUBLISHED, LICENSED SOFTWARE.
   6:.\gnome_debug.c ****  *
   7:.\gnome_debug.c ****  * CONFIDENTIAL AND PROPRIETARY INFORMATION
   8:.\gnome_debug.c ****  * WHICH IS THE PROPERTY OF your company.
   9:.\gnome_debug.c ****  *
  10:.\gnome_debug.c ****  * ========================================
  11:.\gnome_debug.c **** */
  12:.\gnome_debug.c **** 
  13:.\gnome_debug.c **** #include "gnome.h"
  14:.\gnome_debug.c **** #include "gnome_config.h"
  15:.\gnome_debug.c **** #include "gnome_debug.h"
  16:.\gnome_debug.c **** #include "gnome_memory.h"
  17:.\gnome_debug.c **** 
  18:.\gnome_debug.c **** #if GNOME_DEBUGGING_ON
  19:.\gnome_debug.c ****     #include "UART_RX_IT.h"
  20:.\gnome_debug.c ****     #include <string.h>
  21:.\gnome_debug.c ****     #include <stdlib.h>
  22:.\gnome_debug.c **** #endif
  23:.\gnome_debug.c **** 
  24:.\gnome_debug.c **** #include <stdio.h>
  25:.\gnome_debug.c **** 
  26:.\gnome_debug.c **** CY_ISR_PROTO(gnome_tx_uart_it);
  27:.\gnome_debug.c **** 
  28:.\gnome_debug.c **** void gnome_debug_init() {
  27              		.loc 1 28 0
  28              		.cfi_startproc
  29              		@ args = 0, pretend = 0, frame = 0
ARM GAS  C:\Users\Javier\AppData\Local\Temp\ccFGMuYp.s 			page 2


  30              		@ frame_needed = 0, uses_anonymous_args = 0
  31 0000 10B5     		push	{r4, lr}
  32              		.cfi_def_cfa_offset 8
  33              		.cfi_offset 4, -8
  34              		.cfi_offset 14, -4
  29:.\gnome_debug.c ****     #if (GNOME_DEBUGGING_ON == 1) 
  30:.\gnome_debug.c ****         UART_Start();
  35              		.loc 1 30 0
  36 0002 FFF7FEFF 		bl	UART_Start
  37              	.LVL0:
  31:.\gnome_debug.c ****         UART_PutString("//////////////////////////////////////\r\n");
  38              		.loc 1 31 0
  39 0006 124C     		ldr	r4, .L5
  40 0008 2046     		mov	r0, r4
  41 000a FFF7FEFF 		bl	UART_PutString
  42              	.LVL1:
  32:.\gnome_debug.c ****         UART_PutString("//---- GNOME DEBUGGING TERMINAL ----//\r\n");
  43              		.loc 1 32 0
  44 000e 1148     		ldr	r0, .L5+4
  45 0010 FFF7FEFF 		bl	UART_PutString
  46              	.LVL2:
  33:.\gnome_debug.c ****         UART_PutString("//////////////////////////////////////\r\n");
  47              		.loc 1 33 0
  48 0014 2046     		mov	r0, r4
  49 0016 FFF7FEFF 		bl	UART_PutString
  50              	.LVL3:
  34:.\gnome_debug.c ****         
  35:.\gnome_debug.c ****         gnome_debug_state.active = 0x01;
  51              		.loc 1 35 0
  52 001a 0122     		movs	r2, #1
  53 001c 0E4B     		ldr	r3, .L5+8
  54 001e 1A70     		strb	r2, [r3]
  55              	.LVL4:
  36:.\gnome_debug.c ****         uint8_t i;
  37:.\gnome_debug.c ****         for (i = 0; i < GNOME_DEBUGGING_MAX_BREAKPOINTS; i++) {
  56              		.loc 1 37 0
  57 0020 0023     		movs	r3, #0
  58 0022 07E0     		b	.L2
  59              	.LVL5:
  60              	.L3:
  38:.\gnome_debug.c ****             gnome_debug_state.breakpoints[i].active = 0x00;
  61              		.loc 1 38 0 discriminator 3
  62 0024 0C4A     		ldr	r2, .L5+8
  63 0026 02EB4302 		add	r2, r2, r3, lsl #1
  64 002a 0021     		movs	r1, #0
  65 002c D170     		strb	r1, [r2, #3]
  39:.\gnome_debug.c ****             gnome_debug_state.breakpoints[i].pc = GNOME_RESET_VECTOR;
  66              		.loc 1 39 0 discriminator 3
  67 002e 9170     		strb	r1, [r2, #2]
  37:.\gnome_debug.c ****             gnome_debug_state.breakpoints[i].active = 0x00;
  68              		.loc 1 37 0 discriminator 3
  69 0030 0133     		adds	r3, r3, #1
  70              	.LVL6:
  71 0032 DBB2     		uxtb	r3, r3
  72              	.LVL7:
  73              	.L2:
  37:.\gnome_debug.c ****             gnome_debug_state.breakpoints[i].active = 0x00;
ARM GAS  C:\Users\Javier\AppData\Local\Temp\ccFGMuYp.s 			page 3


  74              		.loc 1 37 0 is_stmt 0 discriminator 1
  75 0034 072B     		cmp	r3, #7
  76 0036 F5D9     		bls	.L3
  40:.\gnome_debug.c ****         }
  41:.\gnome_debug.c ****         
  42:.\gnome_debug.c ****         gnome_console.ptr = 0;
  77              		.loc 1 42 0 is_stmt 1
  78 0038 0022     		movs	r2, #0
  79 003a 084B     		ldr	r3, .L5+12
  80              	.LVL8:
  81 003c DA73     		strb	r2, [r3, #15]
  43:.\gnome_debug.c ****         
  44:.\gnome_debug.c ****         gnome_debug_state.breakpoints[0].active = 1;
  82              		.loc 1 44 0
  83 003e 064B     		ldr	r3, .L5+8
  84 0040 0122     		movs	r2, #1
  85 0042 DA70     		strb	r2, [r3, #3]
  45:.\gnome_debug.c ****         gnome_debug_state.breakpoints[0].pc = 0x77;
  86              		.loc 1 45 0
  87 0044 7722     		movs	r2, #119
  88 0046 9A70     		strb	r2, [r3, #2]
  46:.\gnome_debug.c ****         
  47:.\gnome_debug.c ****         #ifndef GNOME_UART_RX_IT_OPT_OUT
  48:.\gnome_debug.c ****             UART_RX_IT_StartEx(gnome_tx_uart_it);
  89              		.loc 1 48 0
  90 0048 0548     		ldr	r0, .L5+16
  91 004a FFF7FEFF 		bl	UART_RX_IT_StartEx
  92              	.LVL9:
  93 004e 10BD     		pop	{r4, pc}
  94              	.L6:
  95              		.align	2
  96              	.L5:
  97 0050 00000000 		.word	.LC0
  98 0054 2C000000 		.word	.LC1
  99 0058 00000000 		.word	gnome_debug_state
 100 005c 00000000 		.word	gnome_console
 101 0060 00000000 		.word	gnome_tx_uart_it
 102              		.cfi_endproc
 103              	.LFE63:
 104              		.size	gnome_debug_init, .-gnome_debug_init
 105              		.section	.text.gnome_debug_print_state,"ax",%progbits
 106              		.align	2
 107              		.global	gnome_debug_print_state
 108              		.thumb
 109              		.thumb_func
 110              		.type	gnome_debug_print_state, %function
 111              	gnome_debug_print_state:
 112              	.LFB65:
  49:.\gnome_debug.c ****         #endif
  50:.\gnome_debug.c ****         
  51:.\gnome_debug.c ****     #endif
  52:.\gnome_debug.c **** }
  53:.\gnome_debug.c **** 
  54:.\gnome_debug.c **** void gnome_debug_loop(uint8_t code) {
  55:.\gnome_debug.c ****     #if(GNOME_DEBUGGING_ON==1) 
  56:.\gnome_debug.c ****         CyGlobalIntDisable;      
  57:.\gnome_debug.c ****         // Check if debugger should activate (by reaching a new breakpoint)
ARM GAS  C:\Users\Javier\AppData\Local\Temp\ccFGMuYp.s 			page 4


  58:.\gnome_debug.c ****         uint8_t i;
  59:.\gnome_debug.c ****         for (i = 0; i < GNOME_DEBUGGING_MAX_BREAKPOINTS; i++) {
  60:.\gnome_debug.c ****             if ((current_context->PC == gnome_debug_state.breakpoints[i].pc) && gnome_debug_state.b
  61:.\gnome_debug.c ****                 gnome_debug_state.active = 0x01;
  62:.\gnome_debug.c ****                 char str[40];
  63:.\gnome_debug.c ****                 sprintf(str, "Reached breakpoint at PC = 0x%02x\r\n", current_context->PC);
  64:.\gnome_debug.c ****                 UART_PutString(str);
  65:.\gnome_debug.c ****                 break;
  66:.\gnome_debug.c ****             }
  67:.\gnome_debug.c ****         }
  68:.\gnome_debug.c ****         
  69:.\gnome_debug.c ****         
  70:.\gnome_debug.c ****         // If debugger is active, print state and wait for user action
  71:.\gnome_debug.c ****         if (gnome_debug_state.active) {
  72:.\gnome_debug.c ****             // Print state
  73:.\gnome_debug.c ****             gnome_debug_print_state(code);
  74:.\gnome_debug.c ****             
  75:.\gnome_debug.c ****             // Wait for user to resume execution or step
  76:.\gnome_debug.c ****             CyGlobalIntDisable;
  77:.\gnome_debug.c ****             gnome_debug_state.stop = 0x01;
  78:.\gnome_debug.c ****             CyGlobalIntEnable;
  79:.\gnome_debug.c ****             while(gnome_debug_state.stop);
  80:.\gnome_debug.c ****         }
  81:.\gnome_debug.c ****         
  82:.\gnome_debug.c ****         CyGlobalIntEnable;
  83:.\gnome_debug.c ****     #endif
  84:.\gnome_debug.c **** }
  85:.\gnome_debug.c **** 
  86:.\gnome_debug.c **** 
  87:.\gnome_debug.c **** void gnome_debug_print_state(uint8_t code) {
 113              		.loc 1 87 0
 114              		.cfi_startproc
 115              		@ args = 0, pretend = 0, frame = 40
 116              		@ frame_needed = 0, uses_anonymous_args = 0
 117              	.LVL10:
 118 0000 30B5     		push	{r4, r5, lr}
 119              		.cfi_def_cfa_offset 12
 120              		.cfi_offset 4, -12
 121              		.cfi_offset 5, -8
 122              		.cfi_offset 14, -4
 123 0002 8BB0     		sub	sp, sp, #44
 124              		.cfi_def_cfa_offset 56
 125 0004 0546     		mov	r5, r0
  88:.\gnome_debug.c ****     #if(GNOME_DEBUGGING_ON==1) 
  89:.\gnome_debug.c ****         char str[40];
  90:.\gnome_debug.c ****         if (current_context == &normal_context) 
 126              		.loc 1 90 0
 127 0006 3A4B     		ldr	r3, .L16
 128 0008 1A68     		ldr	r2, [r3]
 129 000a 3A4B     		ldr	r3, .L16+4
 130 000c 9A42     		cmp	r2, r3
 131 000e 03D1     		bne	.L8
  91:.\gnome_debug.c ****             UART_PutString("\tNormal Context\r\n");
 132              		.loc 1 91 0
 133 0010 3948     		ldr	r0, .L16+8
 134              	.LVL11:
 135 0012 FFF7FEFF 		bl	UART_PutString
ARM GAS  C:\Users\Javier\AppData\Local\Temp\ccFGMuYp.s 			page 5


 136              	.LVL12:
 137 0016 02E0     		b	.L9
 138              	.LVL13:
 139              	.L8:
  92:.\gnome_debug.c ****         else
  93:.\gnome_debug.c ****             UART_PutString("\tIT Context\r\n");
 140              		.loc 1 93 0
 141 0018 3848     		ldr	r0, .L16+12
 142              	.LVL14:
 143 001a FFF7FEFF 		bl	UART_PutString
 144              	.LVL15:
 145              	.L9:
  94:.\gnome_debug.c ****             
  95:.\gnome_debug.c ****         sprintf(str, "\tPC = 0x%02x\r\n", current_context->PC);
 146              		.loc 1 95 0
 147 001e 344C     		ldr	r4, .L16
 148 0020 2368     		ldr	r3, [r4]
 149 0022 6846     		mov	r0, sp
 150 0024 3649     		ldr	r1, .L16+16
 151 0026 DA78     		ldrb	r2, [r3, #3]	@ zero_extendqisi2
 152 0028 FFF7FEFF 		bl	sprintf
 153              	.LVL16:
  96:.\gnome_debug.c ****         UART_PutString(str);
 154              		.loc 1 96 0
 155 002c 6846     		mov	r0, sp
 156 002e FFF7FEFF 		bl	UART_PutString
 157              	.LVL17:
  97:.\gnome_debug.c ****         sprintf(str, "\tInstruccion = 0x%02x\r\n", code);
 158              		.loc 1 97 0
 159 0032 6846     		mov	r0, sp
 160 0034 3349     		ldr	r1, .L16+20
 161 0036 2A46     		mov	r2, r5
 162 0038 FFF7FEFF 		bl	sprintf
 163              	.LVL18:
  98:.\gnome_debug.c ****         UART_PutString(str);
 164              		.loc 1 98 0
 165 003c 6846     		mov	r0, sp
 166 003e FFF7FEFF 		bl	UART_PutString
 167              	.LVL19:
  99:.\gnome_debug.c ****         sprintf(str, "\tAcumulador = 0x%02x\r\n", current_context->accumulator);
 168              		.loc 1 99 0
 169 0042 2368     		ldr	r3, [r4]
 170 0044 6846     		mov	r0, sp
 171 0046 3049     		ldr	r1, .L16+24
 172 0048 1A78     		ldrb	r2, [r3]	@ zero_extendqisi2
 173 004a FFF7FEFF 		bl	sprintf
 174              	.LVL20:
 100:.\gnome_debug.c ****         UART_PutString(str);
 175              		.loc 1 100 0
 176 004e 6846     		mov	r0, sp
 177 0050 FFF7FEFF 		bl	UART_PutString
 178              	.LVL21:
 101:.\gnome_debug.c ****         sprintf(str, "\tC, Z = %d, %d\r\n", current_context->flags.C, current_context->flags.Z);
 179              		.loc 1 101 0
 180 0054 2368     		ldr	r3, [r4]
 181 0056 6846     		mov	r0, sp
 182 0058 2C49     		ldr	r1, .L16+28
ARM GAS  C:\Users\Javier\AppData\Local\Temp\ccFGMuYp.s 			page 6


 183 005a 5A78     		ldrb	r2, [r3, #1]	@ zero_extendqisi2
 184 005c 9B78     		ldrb	r3, [r3, #2]	@ zero_extendqisi2
 185 005e FFF7FEFF 		bl	sprintf
 186              	.LVL22:
 102:.\gnome_debug.c ****         UART_PutString(str);
 187              		.loc 1 102 0
 188 0062 6846     		mov	r0, sp
 189 0064 FFF7FEFF 		bl	UART_PutString
 190              	.LVL23:
 103:.\gnome_debug.c ****         sprintf(str, "\tREG_DIR_INDIRECTO =  0x%02x\r\n", current_context->ind_addr_reg.data);
 191              		.loc 1 103 0
 192 0068 2368     		ldr	r3, [r4]
 193 006a 6846     		mov	r0, sp
 194 006c 2849     		ldr	r1, .L16+32
 195 006e 5A7A     		ldrb	r2, [r3, #9]	@ zero_extendqisi2
 196 0070 FFF7FEFF 		bl	sprintf
 197              	.LVL24:
 104:.\gnome_debug.c ****         UART_PutString(str);
 198              		.loc 1 104 0
 199 0074 6846     		mov	r0, sp
 200 0076 FFF7FEFF 		bl	UART_PutString
 201              	.LVL25:
 105:.\gnome_debug.c ****         
 106:.\gnome_debug.c ****         int i = 0;
 107:.\gnome_debug.c ****         for (i = 0; i < 16; i++) {
 202              		.loc 1 107 0
 203 007a 0024     		movs	r4, #0
 204 007c 0CE0     		b	.L10
 205              	.LVL26:
 206              	.L11:
 108:.\gnome_debug.c ****             sprintf(str, "\tREG[%d] = 0x%02x\r\n", i, gnome_debug_load_reg(i));
 207              		.loc 1 108 0 discriminator 3
 208 007e E0B2     		uxtb	r0, r4
 209 0080 FFF7FEFF 		bl	gnome_debug_load_reg
 210              	.LVL27:
 211 0084 0346     		mov	r3, r0
 212 0086 6846     		mov	r0, sp
 213 0088 2249     		ldr	r1, .L16+36
 214 008a 2246     		mov	r2, r4
 215 008c FFF7FEFF 		bl	sprintf
 216              	.LVL28:
 109:.\gnome_debug.c ****             UART_PutString(str);
 217              		.loc 1 109 0 discriminator 3
 218 0090 6846     		mov	r0, sp
 219 0092 FFF7FEFF 		bl	UART_PutString
 220              	.LVL29:
 107:.\gnome_debug.c ****             sprintf(str, "\tREG[%d] = 0x%02x\r\n", i, gnome_debug_load_reg(i));
 221              		.loc 1 107 0 discriminator 3
 222 0096 0134     		adds	r4, r4, #1
 223              	.LVL30:
 224              	.L10:
 107:.\gnome_debug.c ****             sprintf(str, "\tREG[%d] = 0x%02x\r\n", i, gnome_debug_load_reg(i));
 225              		.loc 1 107 0 is_stmt 0 discriminator 1
 226 0098 0F2C     		cmp	r4, #15
 227 009a F0DD     		ble	.L11
 110:.\gnome_debug.c ****         }
 111:.\gnome_debug.c ****         UART_PutString("\r\n");
ARM GAS  C:\Users\Javier\AppData\Local\Temp\ccFGMuYp.s 			page 7


 228              		.loc 1 111 0 is_stmt 1
 229 009c 1E48     		ldr	r0, .L16+40
 230 009e FFF7FEFF 		bl	UART_PutString
 231              	.LVL31:
 112:.\gnome_debug.c ****         for (i = 0; i < GNOME_STACK_SIZE; i++) {
 232              		.loc 1 112 0
 233 00a2 0024     		movs	r4, #0
 234 00a4 13E0     		b	.L12
 235              	.LVL32:
 236              	.L14:
 237              	.LBB2:
 113:.\gnome_debug.c ****             uint8_t addr = current_context->stack.ptr - i;
 238              		.loc 1 113 0
 239 00a6 124B     		ldr	r3, .L16
 240 00a8 1968     		ldr	r1, [r3]
 241 00aa 0A7A     		ldrb	r2, [r1, #8]	@ zero_extendqisi2
 242 00ac 121B     		subs	r2, r2, r4
 243 00ae D3B2     		uxtb	r3, r2
 244              	.LVL33:
 114:.\gnome_debug.c ****             if (addr >= GNOME_STACK_SIZE) addr -= GNOME_STACK_SIZE;
 245              		.loc 1 114 0
 246 00b0 032B     		cmp	r3, #3
 247 00b2 01D9     		bls	.L13
 248              		.loc 1 114 0 is_stmt 0 discriminator 1
 249 00b4 1A1F     		subs	r2, r3, #4
 250 00b6 D3B2     		uxtb	r3, r2
 251              	.LVL34:
 252              	.L13:
 115:.\gnome_debug.c ****             sprintf(str, "\tSTACK[%d] = 0x%02x\r\n", i, current_context->stack.data[addr]);
 253              		.loc 1 115 0 is_stmt 1 discriminator 2
 254 00b8 0B44     		add	r3, r3, r1
 255              	.LVL35:
 256 00ba 6846     		mov	r0, sp
 257 00bc 1749     		ldr	r1, .L16+44
 258 00be 2246     		mov	r2, r4
 259 00c0 1B79     		ldrb	r3, [r3, #4]	@ zero_extendqisi2
 260 00c2 FFF7FEFF 		bl	sprintf
 261              	.LVL36:
 116:.\gnome_debug.c ****             UART_PutString(str);
 262              		.loc 1 116 0 discriminator 2
 263 00c6 6846     		mov	r0, sp
 264 00c8 FFF7FEFF 		bl	UART_PutString
 265              	.LVL37:
 266              	.LBE2:
 112:.\gnome_debug.c ****             uint8_t addr = current_context->stack.ptr - i;
 267              		.loc 1 112 0 discriminator 2
 268 00cc 0134     		adds	r4, r4, #1
 269              	.LVL38:
 270              	.L12:
 112:.\gnome_debug.c ****             uint8_t addr = current_context->stack.ptr - i;
 271              		.loc 1 112 0 is_stmt 0 discriminator 1
 272 00ce 032C     		cmp	r4, #3
 273 00d0 E9DD     		ble	.L14
 117:.\gnome_debug.c ****         }
 118:.\gnome_debug.c ****         sprintf(str, "\tSTACK_PTR = 0x%02x\r\n", current_context->stack.ptr);
 274              		.loc 1 118 0 is_stmt 1
 275 00d2 074B     		ldr	r3, .L16
ARM GAS  C:\Users\Javier\AppData\Local\Temp\ccFGMuYp.s 			page 8


 276 00d4 1B68     		ldr	r3, [r3]
 277 00d6 6846     		mov	r0, sp
 278 00d8 1149     		ldr	r1, .L16+48
 279 00da 1A7A     		ldrb	r2, [r3, #8]	@ zero_extendqisi2
 280 00dc FFF7FEFF 		bl	sprintf
 281              	.LVL39:
 119:.\gnome_debug.c ****         UART_PutString(str);
 282              		.loc 1 119 0
 283 00e0 6846     		mov	r0, sp
 284 00e2 FFF7FEFF 		bl	UART_PutString
 285              	.LVL40:
 120:.\gnome_debug.c ****         
 121:.\gnome_debug.c ****         UART_PutString("\r\n\r\n");
 286              		.loc 1 121 0
 287 00e6 0F48     		ldr	r0, .L16+52
 288 00e8 FFF7FEFF 		bl	UART_PutString
 289              	.LVL41:
 122:.\gnome_debug.c ****     #endif
 123:.\gnome_debug.c **** }
 290              		.loc 1 123 0
 291 00ec 0BB0     		add	sp, sp, #44
 292              		.cfi_def_cfa_offset 12
 293              		@ sp needed
 294 00ee 30BD     		pop	{r4, r5, pc}
 295              	.LVL42:
 296              	.L17:
 297              		.align	2
 298              	.L16:
 299 00f0 00000000 		.word	current_context
 300 00f4 00000000 		.word	normal_context
 301 00f8 58000000 		.word	.LC2
 302 00fc 6C000000 		.word	.LC3
 303 0100 7C000000 		.word	.LC4
 304 0104 8C000000 		.word	.LC5
 305 0108 A4000000 		.word	.LC6
 306 010c BC000000 		.word	.LC7
 307 0110 D0000000 		.word	.LC8
 308 0114 F0000000 		.word	.LC9
 309 0118 04010000 		.word	.LC10
 310 011c 08010000 		.word	.LC11
 311 0120 20010000 		.word	.LC12
 312 0124 38010000 		.word	.LC13
 313              		.cfi_endproc
 314              	.LFE65:
 315              		.size	gnome_debug_print_state, .-gnome_debug_print_state
 316              		.section	.text.gnome_debug_loop,"ax",%progbits
 317              		.align	2
 318              		.global	gnome_debug_loop
 319              		.thumb
 320              		.thumb_func
 321              		.type	gnome_debug_loop, %function
 322              	gnome_debug_loop:
 323              	.LFB64:
  54:.\gnome_debug.c ****     #if(GNOME_DEBUGGING_ON==1) 
 324              		.loc 1 54 0
 325              		.cfi_startproc
 326              		@ args = 0, pretend = 0, frame = 40
ARM GAS  C:\Users\Javier\AppData\Local\Temp\ccFGMuYp.s 			page 9


 327              		@ frame_needed = 0, uses_anonymous_args = 0
 328              	.LVL43:
 329 0000 10B5     		push	{r4, lr}
 330              		.cfi_def_cfa_offset 8
 331              		.cfi_offset 4, -8
 332              		.cfi_offset 14, -4
 333 0002 8AB0     		sub	sp, sp, #40
 334              		.cfi_def_cfa_offset 48
 335 0004 0446     		mov	r4, r0
  56:.\gnome_debug.c ****         // Check if debugger should activate (by reaching a new breakpoint)
 336              		.loc 1 56 0
 337              	@ 56 ".\gnome_debug.c" 1
 338 0006 72B6     		CPSID   i
 339              	@ 0 "" 2
 340              	.LVL44:
  59:.\gnome_debug.c ****             if ((current_context->PC == gnome_debug_state.breakpoints[i].pc) && gnome_debug_state.b
 341              		.loc 1 59 0
 342              		.thumb
 343 0008 0023     		movs	r3, #0
 344 000a 1AE0     		b	.L19
 345              	.LVL45:
 346              	.L22:
  60:.\gnome_debug.c ****                 gnome_debug_state.active = 0x01;
 347              		.loc 1 60 0
 348 000c 174A     		ldr	r2, .L26
 349 000e 1268     		ldr	r2, [r2]
 350 0010 D278     		ldrb	r2, [r2, #3]	@ zero_extendqisi2
 351 0012 1749     		ldr	r1, .L26+4
 352 0014 01EB4301 		add	r1, r1, r3, lsl #1
 353 0018 8978     		ldrb	r1, [r1, #2]	@ zero_extendqisi2
 354 001a 8A42     		cmp	r2, r1
 355 001c 0FD1     		bne	.L20
  60:.\gnome_debug.c ****                 gnome_debug_state.active = 0x01;
 356              		.loc 1 60 0 is_stmt 0 discriminator 1
 357 001e 1449     		ldr	r1, .L26+4
 358 0020 01EB4301 		add	r1, r1, r3, lsl #1
 359 0024 C978     		ldrb	r1, [r1, #3]	@ zero_extendqisi2
 360 0026 51B1     		cbz	r1, .L20
 361              	.LBB3:
  61:.\gnome_debug.c ****                 char str[40];
 362              		.loc 1 61 0 is_stmt 1
 363 0028 0121     		movs	r1, #1
 364 002a 114B     		ldr	r3, .L26+4
 365              	.LVL46:
 366 002c 1970     		strb	r1, [r3]
  63:.\gnome_debug.c ****                 UART_PutString(str);
 367              		.loc 1 63 0
 368 002e 6846     		mov	r0, sp
 369              	.LVL47:
 370 0030 1049     		ldr	r1, .L26+8
 371 0032 FFF7FEFF 		bl	sprintf
 372              	.LVL48:
  64:.\gnome_debug.c ****                 break;
 373              		.loc 1 64 0
 374 0036 6846     		mov	r0, sp
 375 0038 FFF7FEFF 		bl	UART_PutString
 376              	.LVL49:
ARM GAS  C:\Users\Javier\AppData\Local\Temp\ccFGMuYp.s 			page 10


 377 003c 03E0     		b	.L21
 378              	.LVL50:
 379              	.L20:
 380              	.LBE3:
  59:.\gnome_debug.c ****             if ((current_context->PC == gnome_debug_state.breakpoints[i].pc) && gnome_debug_state.b
 381              		.loc 1 59 0 discriminator 2
 382 003e 0133     		adds	r3, r3, #1
 383              	.LVL51:
 384 0040 DBB2     		uxtb	r3, r3
 385              	.LVL52:
 386              	.L19:
  59:.\gnome_debug.c ****             if ((current_context->PC == gnome_debug_state.breakpoints[i].pc) && gnome_debug_state.b
 387              		.loc 1 59 0 is_stmt 0 discriminator 1
 388 0042 072B     		cmp	r3, #7
 389 0044 E2D9     		bls	.L22
 390              	.LVL53:
 391              	.L21:
  71:.\gnome_debug.c ****             // Print state
 392              		.loc 1 71 0 is_stmt 1
 393 0046 0A4B     		ldr	r3, .L26+4
 394 0048 1B78     		ldrb	r3, [r3]	@ zero_extendqisi2
 395 004a 63B1     		cbz	r3, .L23
  73:.\gnome_debug.c ****             
 396              		.loc 1 73 0
 397 004c 2046     		mov	r0, r4
 398 004e FFF7FEFF 		bl	gnome_debug_print_state
 399              	.LVL54:
  76:.\gnome_debug.c ****             gnome_debug_state.stop = 0x01;
 400              		.loc 1 76 0
 401              	@ 76 ".\gnome_debug.c" 1
 402 0052 72B6     		CPSID   i
 403              	@ 0 "" 2
  77:.\gnome_debug.c ****             CyGlobalIntEnable;
 404              		.loc 1 77 0
 405              		.thumb
 406 0054 0122     		movs	r2, #1
 407 0056 064B     		ldr	r3, .L26+4
 408 0058 5A70     		strb	r2, [r3, #1]
  78:.\gnome_debug.c ****             while(gnome_debug_state.stop);
 409              		.loc 1 78 0
 410              	@ 78 ".\gnome_debug.c" 1
 411 005a 62B6     		CPSIE   i
 412              	@ 0 "" 2
 413              		.thumb
 414              	.L24:
  79:.\gnome_debug.c ****         }
 415              		.loc 1 79 0 discriminator 1
 416 005c 044B     		ldr	r3, .L26+4
 417 005e 5B78     		ldrb	r3, [r3, #1]	@ zero_extendqisi2
 418 0060 13F0FF0F 		tst	r3, #255
 419 0064 FAD1     		bne	.L24
 420              	.L23:
  82:.\gnome_debug.c ****     #endif
 421              		.loc 1 82 0
 422              	@ 82 ".\gnome_debug.c" 1
 423 0066 62B6     		CPSIE   i
 424              	@ 0 "" 2
ARM GAS  C:\Users\Javier\AppData\Local\Temp\ccFGMuYp.s 			page 11


  84:.\gnome_debug.c **** 
 425              		.loc 1 84 0
 426              		.thumb
 427 0068 0AB0     		add	sp, sp, #40
 428              		.cfi_def_cfa_offset 8
 429              		@ sp needed
 430 006a 10BD     		pop	{r4, pc}
 431              	.L27:
 432              		.align	2
 433              	.L26:
 434 006c 00000000 		.word	current_context
 435 0070 00000000 		.word	gnome_debug_state
 436 0074 40010000 		.word	.LC14
 437              		.cfi_endproc
 438              	.LFE64:
 439              		.size	gnome_debug_loop, .-gnome_debug_loop
 440              		.section	.text.gnome_debug_toggle_breakpoint,"ax",%progbits
 441              		.align	2
 442              		.global	gnome_debug_toggle_breakpoint
 443              		.thumb
 444              		.thumb_func
 445              		.type	gnome_debug_toggle_breakpoint, %function
 446              	gnome_debug_toggle_breakpoint:
 447              	.LFB66:
 124:.\gnome_debug.c **** 
 125:.\gnome_debug.c **** #if GNOME_DEBUGGING_ON
 126:.\gnome_debug.c **** uint8_t gnome_debug_toggle_breakpoint(uint8_t PC) {
 448              		.loc 1 126 0
 449              		.cfi_startproc
 450              		@ args = 0, pretend = 0, frame = 0
 451              		@ frame_needed = 0, uses_anonymous_args = 0
 452              		@ link register save eliminated.
 453              	.LVL55:
 454 0000 0146     		mov	r1, r0
 455              	.LVL56:
 127:.\gnome_debug.c ****     uint8_t i = 0, found = 0;
 128:.\gnome_debug.c ****     
 129:.\gnome_debug.c ****     // Toggle if it exists on the list
 130:.\gnome_debug.c ****     for (i = 0; i < GNOME_DEBUGGING_MAX_BREAKPOINTS; i++) {
 456              		.loc 1 130 0
 457 0002 0023     		movs	r3, #0
 458 0004 15E0     		b	.L29
 459              	.LVL57:
 460              	.L32:
 131:.\gnome_debug.c ****         if (gnome_debug_state.breakpoints[i].pc == PC) {
 461              		.loc 1 131 0
 462 0006 1846     		mov	r0, r3
 463 0008 184A     		ldr	r2, .L39
 464 000a 02EB4302 		add	r2, r2, r3, lsl #1
 465 000e 9278     		ldrb	r2, [r2, #2]	@ zero_extendqisi2
 466 0010 8A42     		cmp	r2, r1
 467 0012 0CD1     		bne	.L30
 132:.\gnome_debug.c ****             gnome_debug_state.breakpoints[i].active = !gnome_debug_state.breakpoints[i].active;
 468              		.loc 1 132 0
 469 0014 154B     		ldr	r3, .L39
 470              	.LVL58:
 471 0016 03EB4000 		add	r0, r3, r0, lsl #1
ARM GAS  C:\Users\Javier\AppData\Local\Temp\ccFGMuYp.s 			page 12


 472 001a C378     		ldrb	r3, [r0, #3]	@ zero_extendqisi2
 473 001c B3FA83F3 		clz	r3, r3
 474 0020 5B09     		lsrs	r3, r3, #5
 475 0022 C370     		strb	r3, [r0, #3]
 133:.\gnome_debug.c ****             found = 1 | (gnome_debug_state.breakpoints[i].active << 1);
 476              		.loc 1 133 0
 477 0024 5800     		lsls	r0, r3, #1
 478 0026 40F00100 		orr	r0, r0, #1
 479 002a C0B2     		uxtb	r0, r0
 480              	.LVL59:
 134:.\gnome_debug.c ****             break;
 481              		.loc 1 134 0
 482 002c 04E0     		b	.L31
 483              	.LVL60:
 484              	.L30:
 130:.\gnome_debug.c ****         if (gnome_debug_state.breakpoints[i].pc == PC) {
 485              		.loc 1 130 0 discriminator 2
 486 002e 0133     		adds	r3, r3, #1
 487              	.LVL61:
 488 0030 DBB2     		uxtb	r3, r3
 489              	.LVL62:
 490              	.L29:
 130:.\gnome_debug.c ****         if (gnome_debug_state.breakpoints[i].pc == PC) {
 491              		.loc 1 130 0 is_stmt 0 discriminator 1
 492 0032 072B     		cmp	r3, #7
 493 0034 E7D9     		bls	.L32
 127:.\gnome_debug.c ****     
 494              		.loc 1 127 0 is_stmt 1
 495 0036 0020     		movs	r0, #0
 496              	.LVL63:
 497              	.L31:
 135:.\gnome_debug.c ****         }
 136:.\gnome_debug.c ****     }
 137:.\gnome_debug.c ****     
 138:.\gnome_debug.c ****     // Add to the list
 139:.\gnome_debug.c ****     if (found == 0) {
 498              		.loc 1 139 0
 499 0038 88B1     		cbz	r0, .L37
 140:.\gnome_debug.c ****         for (i = 0; i < GNOME_DEBUGGING_MAX_BREAKPOINTS; i++) {
 141:.\gnome_debug.c ****             if (!gnome_debug_state.breakpoints[i].active) {
 142:.\gnome_debug.c ****                 gnome_debug_state.breakpoints[i].pc = PC;
 143:.\gnome_debug.c ****                 gnome_debug_state.breakpoints[i].active = 1;
 144:.\gnome_debug.c ****                 found = 0x03;
 145:.\gnome_debug.c ****                 break;
 146:.\gnome_debug.c ****             }
 147:.\gnome_debug.c ****         }
 148:.\gnome_debug.c ****     }
 149:.\gnome_debug.c ****     
 150:.\gnome_debug.c ****     return found;
 151:.\gnome_debug.c **** }
 500              		.loc 1 151 0
 501 003a 7047     		bx	lr
 502              	.LVL64:
 503              	.L36:
 504              		.cfi_def_cfa_offset 4
 505              		.cfi_offset 4, -4
 141:.\gnome_debug.c ****                 gnome_debug_state.breakpoints[i].pc = PC;
ARM GAS  C:\Users\Javier\AppData\Local\Temp\ccFGMuYp.s 			page 13


 506              		.loc 1 141 0
 507 003c 1C46     		mov	r4, r3
 508 003e 0B4A     		ldr	r2, .L39
 509 0040 02EB4302 		add	r2, r2, r3, lsl #1
 510 0044 D278     		ldrb	r2, [r2, #3]	@ zero_extendqisi2
 511 0046 3AB9     		cbnz	r2, .L35
 142:.\gnome_debug.c ****                 gnome_debug_state.breakpoints[i].active = 1;
 512              		.loc 1 142 0
 513 0048 084B     		ldr	r3, .L39
 514              	.LVL65:
 515 004a 03EB4404 		add	r4, r3, r4, lsl #1
 516 004e A170     		strb	r1, [r4, #2]
 143:.\gnome_debug.c ****                 found = 0x03;
 517              		.loc 1 143 0
 518 0050 0123     		movs	r3, #1
 519 0052 E370     		strb	r3, [r4, #3]
 520              	.LVL66:
 144:.\gnome_debug.c ****                 break;
 521              		.loc 1 144 0
 522 0054 0320     		movs	r0, #3
 145:.\gnome_debug.c ****             }
 523              		.loc 1 145 0
 524 0056 06E0     		b	.L34
 525              	.LVL67:
 526              	.L35:
 140:.\gnome_debug.c ****             if (!gnome_debug_state.breakpoints[i].active) {
 527              		.loc 1 140 0 discriminator 2
 528 0058 0133     		adds	r3, r3, #1
 529              	.LVL68:
 530 005a DBB2     		uxtb	r3, r3
 531              	.LVL69:
 532 005c 01E0     		b	.L33
 533              	.LVL70:
 534              	.L37:
 535              		.cfi_def_cfa_offset 0
 536              		.cfi_restore 4
 126:.\gnome_debug.c ****     uint8_t i = 0, found = 0;
 537              		.loc 1 126 0
 538 005e 10B4     		push	{r4}
 539              		.cfi_def_cfa_offset 4
 540              		.cfi_offset 4, -4
 541 0060 0023     		movs	r3, #0
 542              	.L33:
 543              	.LVL71:
 140:.\gnome_debug.c ****             if (!gnome_debug_state.breakpoints[i].active) {
 544              		.loc 1 140 0 discriminator 1
 545 0062 072B     		cmp	r3, #7
 546 0064 EAD9     		bls	.L36
 547              	.LVL72:
 548              	.L34:
 549              		.loc 1 151 0
 550 0066 5DF8044B 		ldr	r4, [sp], #4
 551              		.cfi_restore 4
 552              		.cfi_def_cfa_offset 0
 553 006a 7047     		bx	lr
 554              	.L40:
 555              		.align	2
ARM GAS  C:\Users\Javier\AppData\Local\Temp\ccFGMuYp.s 			page 14


 556              	.L39:
 557 006c 00000000 		.word	gnome_debug_state
 558              		.cfi_endproc
 559              	.LFE66:
 560              		.size	gnome_debug_toggle_breakpoint, .-gnome_debug_toggle_breakpoint
 561              		.section	.text.gnome_tx_uart_it,"ax",%progbits
 562              		.align	2
 563              		.global	gnome_tx_uart_it
 564              		.thumb
 565              		.thumb_func
 566              		.type	gnome_tx_uart_it, %function
 567              	gnome_tx_uart_it:
 568              	.LFB67:
 152:.\gnome_debug.c **** #endif
 153:.\gnome_debug.c **** 
 154:.\gnome_debug.c **** CY_ISR(gnome_tx_uart_it) {
 569              		.loc 1 154 0
 570              		.cfi_startproc
 571              		@ args = 0, pretend = 0, frame = 40
 572              		@ frame_needed = 0, uses_anonymous_args = 0
 573 0000 30B5     		push	{r4, r5, lr}
 574              		.cfi_def_cfa_offset 12
 575              		.cfi_offset 4, -12
 576              		.cfi_offset 5, -8
 577              		.cfi_offset 14, -4
 578 0002 8BB0     		sub	sp, sp, #44
 579              		.cfi_def_cfa_offset 56
 155:.\gnome_debug.c ****     #if GNOME_DEBUGGING_ON
 156:.\gnome_debug.c ****     while(UART_ReadRxStatus() == UART_RX_STS_FIFO_NOTEMPTY) {
 580              		.loc 1 156 0
 581 0004 85E0     		b	.L42
 582              	.L56:
 157:.\gnome_debug.c ****         gnome_console.buffer[gnome_console.ptr++] = UART_ReadRxData();
 583              		.loc 1 157 0
 584 0006 464C     		ldr	r4, .L59
 585 0008 E57B     		ldrb	r5, [r4, #15]	@ zero_extendqisi2
 586 000a 6B1C     		adds	r3, r5, #1
 587 000c E373     		strb	r3, [r4, #15]
 588 000e FFF7FEFF 		bl	UART_ReadRxData
 589              	.LVL73:
 590 0012 6055     		strb	r0, [r4, r5]
 158:.\gnome_debug.c ****         if (gnome_console.ptr >= GNOME_DEBUG_MAX_BUFFER_LENGTH) gnome_console.ptr = 0;
 591              		.loc 1 158 0
 592 0014 E37B     		ldrb	r3, [r4, #15]	@ zero_extendqisi2
 593 0016 0E2B     		cmp	r3, #14
 594 0018 01D9     		bls	.L43
 595              		.loc 1 158 0 is_stmt 0 discriminator 1
 596 001a 0022     		movs	r2, #0
 597 001c E273     		strb	r2, [r4, #15]
 598              	.L43:
 159:.\gnome_debug.c ****         if (gnome_console.buffer[gnome_console.ptr-1] == ' ') {
 599              		.loc 1 159 0 is_stmt 1
 600 001e 404B     		ldr	r3, .L59
 601 0020 DA7B     		ldrb	r2, [r3, #15]	@ zero_extendqisi2
 602 0022 511E     		subs	r1, r2, #1
 603 0024 5B5C     		ldrb	r3, [r3, r1]	@ zero_extendqisi2
 604 0026 202B     		cmp	r3, #32
ARM GAS  C:\Users\Javier\AppData\Local\Temp\ccFGMuYp.s 			page 15


 605 0028 05D1     		bne	.L44
 160:.\gnome_debug.c ****             gnome_debug_state.stop = 0;
 606              		.loc 1 160 0
 607 002a 0023     		movs	r3, #0
 608 002c 3D4A     		ldr	r2, .L59+4
 609 002e 5370     		strb	r3, [r2, #1]
 161:.\gnome_debug.c ****             gnome_console.ptr = 0;
 610              		.loc 1 161 0
 611 0030 3B4A     		ldr	r2, .L59
 612 0032 D373     		strb	r3, [r2, #15]
 613 0034 6DE0     		b	.L42
 614              	.L44:
 162:.\gnome_debug.c ****         }
 163:.\gnome_debug.c ****         else if (gnome_console.buffer[gnome_console.ptr-1] == 0x1b) {
 615              		.loc 1 163 0
 616 0036 1B2B     		cmp	r3, #27
 617 0038 14D1     		bne	.L46
 164:.\gnome_debug.c ****             if (gnome_debug_state.active) {
 618              		.loc 1 164 0
 619 003a 3A4B     		ldr	r3, .L59+4
 620 003c 1B78     		ldrb	r3, [r3]	@ zero_extendqisi2
 621 003e 3BB1     		cbz	r3, .L47
 165:.\gnome_debug.c ****                 gnome_debug_state.stop = 0;
 622              		.loc 1 165 0
 623 0040 384B     		ldr	r3, .L59+4
 624 0042 0022     		movs	r2, #0
 625 0044 5A70     		strb	r2, [r3, #1]
 166:.\gnome_debug.c ****                 gnome_debug_state.active = 0;
 626              		.loc 1 166 0
 627 0046 1A70     		strb	r2, [r3]
 167:.\gnome_debug.c ****                 UART_PutString("\r\nPROCESSOR ON RUN MODE\r\n\r\n");
 628              		.loc 1 167 0
 629 0048 3748     		ldr	r0, .L59+8
 630 004a FFF7FEFF 		bl	UART_PutString
 631              	.LVL74:
 632 004e 05E0     		b	.L48
 633              	.L47:
 168:.\gnome_debug.c ****             }
 169:.\gnome_debug.c ****             else { 
 170:.\gnome_debug.c ****                 gnome_debug_state.active = 1;
 634              		.loc 1 170 0
 635 0050 0122     		movs	r2, #1
 636 0052 344B     		ldr	r3, .L59+4
 637 0054 1A70     		strb	r2, [r3]
 171:.\gnome_debug.c ****                 UART_PutString("\r\nPROCESSOR ON HALT MODE\r\n\r\n");
 638              		.loc 1 171 0
 639 0056 3548     		ldr	r0, .L59+12
 640 0058 FFF7FEFF 		bl	UART_PutString
 641              	.LVL75:
 642              	.L48:
 172:.\gnome_debug.c ****             }
 173:.\gnome_debug.c ****             gnome_console.ptr = 0;
 643              		.loc 1 173 0
 644 005c 0022     		movs	r2, #0
 645 005e 304B     		ldr	r3, .L59
 646 0060 DA73     		strb	r2, [r3, #15]
 647 0062 56E0     		b	.L42
ARM GAS  C:\Users\Javier\AppData\Local\Temp\ccFGMuYp.s 			page 16


 648              	.L46:
 174:.\gnome_debug.c ****         }
 175:.\gnome_debug.c ****         else if (gnome_console.buffer[gnome_console.ptr-1] == '\r') {
 649              		.loc 1 175 0
 650 0064 0D2B     		cmp	r3, #13
 651 0066 49D1     		bne	.L49
 652              	.LBB4:
 176:.\gnome_debug.c ****             gnome_console.buffer[gnome_console.ptr-1] = '\0';
 653              		.loc 1 176 0
 654 0068 2D48     		ldr	r0, .L59
 655 006a 0023     		movs	r3, #0
 656 006c 4354     		strb	r3, [r0, r1]
 177:.\gnome_debug.c ****             gnome_console.ptr = 0;
 657              		.loc 1 177 0
 658 006e C373     		strb	r3, [r0, #15]
 178:.\gnome_debug.c ****             
 179:.\gnome_debug.c ****             char *substr = strstr(gnome_console.buffer, "TB=0x");
 659              		.loc 1 179 0
 660 0070 2F49     		ldr	r1, .L59+16
 661 0072 FFF7FEFF 		bl	strstr
 662              	.LVL76:
 180:.\gnome_debug.c ****             if (substr) {
 663              		.loc 1 180 0
 664 0076 20B3     		cbz	r0, .L50
 665              	.LVL77:
 666              	.LBB5:
 181:.\gnome_debug.c ****                 substr += sizeof("TB=0x")-1;
 182:.\gnome_debug.c ****                 uint8_t PC = strtol(substr, NULL, 16);
 667              		.loc 1 182 0
 668 0078 0530     		adds	r0, r0, #5
 669              	.LVL78:
 670 007a 0021     		movs	r1, #0
 671 007c 1022     		movs	r2, #16
 672 007e FFF7FEFF 		bl	strtol
 673              	.LVL79:
 674 0082 0446     		mov	r4, r0
 675              	.LVL80:
 183:.\gnome_debug.c ****                 
 184:.\gnome_debug.c ****                 uint8_t state = gnome_debug_toggle_breakpoint(PC);
 676              		.loc 1 184 0
 677 0084 C0B2     		uxtb	r0, r0
 678 0086 FFF7FEFF 		bl	gnome_debug_toggle_breakpoint
 679              	.LVL81:
 185:.\gnome_debug.c ****                 if (state & 0x01) {
 680              		.loc 1 185 0
 681 008a 10F0010F 		tst	r0, #1
 682 008e 14D0     		beq	.L51
 186:.\gnome_debug.c ****                     if (state & 0x02) {
 683              		.loc 1 186 0
 684 0090 10F0020F 		tst	r0, #2
 685 0094 08D0     		beq	.L52
 686              	.LBB6:
 187:.\gnome_debug.c ****                         char str[40];
 188:.\gnome_debug.c ****                         sprintf(str, "Active breakpoint at 0x%02x\r\n", PC);
 687              		.loc 1 188 0
 688 0096 6846     		mov	r0, sp
 689              	.LVL82:
ARM GAS  C:\Users\Javier\AppData\Local\Temp\ccFGMuYp.s 			page 17


 690 0098 2649     		ldr	r1, .L59+20
 691 009a E2B2     		uxtb	r2, r4
 692 009c FFF7FEFF 		bl	sprintf
 693              	.LVL83:
 189:.\gnome_debug.c ****                         UART_PutString(str);
 694              		.loc 1 189 0
 695 00a0 6846     		mov	r0, sp
 696 00a2 FFF7FEFF 		bl	UART_PutString
 697              	.LVL84:
 698              	.LBE6:
 699 00a6 34E0     		b	.L42
 700              	.LVL85:
 701              	.L52:
 702              	.LBB7:
 190:.\gnome_debug.c ****                     } else {
 191:.\gnome_debug.c ****                         char str[40];
 192:.\gnome_debug.c ****                         sprintf(str, "Eliminated breakpoint at 0x%02x\r\n", PC);
 703              		.loc 1 192 0 discriminator 2
 704 00a8 6846     		mov	r0, sp
 705              	.LVL86:
 706 00aa 2349     		ldr	r1, .L59+24
 707 00ac E2B2     		uxtb	r2, r4
 708 00ae FFF7FEFF 		bl	sprintf
 709              	.LVL87:
 193:.\gnome_debug.c ****                         UART_PutString(str);
 710              		.loc 1 193 0 discriminator 2
 711 00b2 6846     		mov	r0, sp
 712 00b4 FFF7FEFF 		bl	UART_PutString
 713              	.LVL88:
 714 00b8 2BE0     		b	.L42
 715              	.LVL89:
 716              	.L51:
 717              	.LBE7:
 194:.\gnome_debug.c ****                     }
 195:.\gnome_debug.c ****                 }
 196:.\gnome_debug.c ****                 else {
 197:.\gnome_debug.c ****                     UART_PutString("All breakpoints are used\r\n");
 718              		.loc 1 197 0
 719 00ba 2048     		ldr	r0, .L59+28
 720              	.LVL90:
 721 00bc FFF7FEFF 		bl	UART_PutString
 722              	.LVL91:
 723 00c0 27E0     		b	.L42
 724              	.LVL92:
 725              	.L50:
 726              	.LBE5:
 198:.\gnome_debug.c ****                 }
 199:.\gnome_debug.c ****             }
 200:.\gnome_debug.c ****             else if (strstr(gnome_console.buffer, "LB")) {
 727              		.loc 1 200 0
 728 00c2 1748     		ldr	r0, .L59
 729              	.LVL93:
 730 00c4 1E49     		ldr	r1, .L59+32
 731 00c6 FFF7FEFF 		bl	strstr
 732              	.LVL94:
 733 00ca 98B9     		cbnz	r0, .L57
 734              	.LBB8:
ARM GAS  C:\Users\Javier\AppData\Local\Temp\ccFGMuYp.s 			page 18


 735 00cc 21E0     		b	.L42
 736              	.LVL95:
 737              	.L55:
 201:.\gnome_debug.c ****                 uint8_t i = 0;
 202:.\gnome_debug.c ****                 for (i = 0; i < GNOME_DEBUGGING_MAX_BREAKPOINTS; i++) {
 203:.\gnome_debug.c ****                     if (gnome_debug_state.breakpoints[i].active) {
 738              		.loc 1 203 0
 739 00ce 154B     		ldr	r3, .L59+4
 740 00d0 03EB4403 		add	r3, r3, r4, lsl #1
 741 00d4 DB78     		ldrb	r3, [r3, #3]	@ zero_extendqisi2
 742 00d6 53B1     		cbz	r3, .L54
 743              	.LBB9:
 204:.\gnome_debug.c ****                         char str[40];
 205:.\gnome_debug.c ****                         sprintf(str, "Active breakpoint at 0x%02x\r\n", gnome_debug_state.breakpoin
 744              		.loc 1 205 0
 745 00d8 124B     		ldr	r3, .L59+4
 746 00da 03EB4403 		add	r3, r3, r4, lsl #1
 747 00de 6846     		mov	r0, sp
 748 00e0 1449     		ldr	r1, .L59+20
 749 00e2 9A78     		ldrb	r2, [r3, #2]	@ zero_extendqisi2
 750 00e4 FFF7FEFF 		bl	sprintf
 751              	.LVL96:
 206:.\gnome_debug.c ****                         UART_PutString(str);
 752              		.loc 1 206 0
 753 00e8 6846     		mov	r0, sp
 754 00ea FFF7FEFF 		bl	UART_PutString
 755              	.LVL97:
 756              	.L54:
 757              	.LBE9:
 202:.\gnome_debug.c ****                     if (gnome_debug_state.breakpoints[i].active) {
 758              		.loc 1 202 0 discriminator 2
 759 00ee 0134     		adds	r4, r4, #1
 760              	.LVL98:
 761 00f0 E4B2     		uxtb	r4, r4
 762              	.LVL99:
 763 00f2 00E0     		b	.L53
 764              	.LVL100:
 765              	.L57:
 766              	.LBE8:
 767 00f4 0024     		movs	r4, #0
 768              	.L53:
 769              	.LVL101:
 770              	.LBB10:
 202:.\gnome_debug.c ****                     if (gnome_debug_state.breakpoints[i].active) {
 771              		.loc 1 202 0 is_stmt 0 discriminator 1
 772 00f6 072C     		cmp	r4, #7
 773 00f8 E9D9     		bls	.L55
 774 00fa 0AE0     		b	.L42
 775              	.LVL102:
 776              	.L49:
 777              	.LBE10:
 778              	.LBE4:
 207:.\gnome_debug.c ****                     }
 208:.\gnome_debug.c ****                 }
 209:.\gnome_debug.c ****             }
 210:.\gnome_debug.c ****         }
 211:.\gnome_debug.c ****         else if (gnome_console.buffer[gnome_console.ptr-1] == 0x7F) {
ARM GAS  C:\Users\Javier\AppData\Local\Temp\ccFGMuYp.s 			page 19


 779              		.loc 1 211 0 is_stmt 1
 780 00fc 7F2B     		cmp	r3, #127
 781 00fe 08D1     		bne	.L42
 212:.\gnome_debug.c ****             gnome_console.ptr--;
 213:.\gnome_debug.c ****             gnome_console.ptr--;
 782              		.loc 1 213 0
 783 0100 023A     		subs	r2, r2, #2
 784 0102 02F0FF02 		and	r2, r2, #255
 785 0106 064B     		ldr	r3, .L59
 786 0108 DA73     		strb	r2, [r3, #15]
 214:.\gnome_debug.c ****             if (gnome_console.ptr >= GNOME_DEBUG_MAX_BUFFER_LENGTH) gnome_console.ptr = 0;
 787              		.loc 1 214 0
 788 010a 0E2A     		cmp	r2, #14
 789 010c 01D9     		bls	.L42
 790              		.loc 1 214 0 is_stmt 0 discriminator 1
 791 010e 0022     		movs	r2, #0
 792 0110 DA73     		strb	r2, [r3, #15]
 793              	.L42:
 156:.\gnome_debug.c ****         gnome_console.buffer[gnome_console.ptr++] = UART_ReadRxData();
 794              		.loc 1 156 0 is_stmt 1
 795 0112 FFF7FEFF 		bl	UART_ReadRxStatus
 796              	.LVL103:
 797 0116 2028     		cmp	r0, #32
 798 0118 3FF475AF 		beq	.L56
 215:.\gnome_debug.c ****         }
 216:.\gnome_debug.c ****     }
 217:.\gnome_debug.c ****     #endif
 218:.\gnome_debug.c **** }
 799              		.loc 1 218 0
 800 011c 0BB0     		add	sp, sp, #44
 801              		.cfi_def_cfa_offset 12
 802              		@ sp needed
 803 011e 30BD     		pop	{r4, r5, pc}
 804              	.L60:
 805              		.align	2
 806              	.L59:
 807 0120 00000000 		.word	gnome_console
 808 0124 00000000 		.word	gnome_debug_state
 809 0128 64010000 		.word	.LC15
 810 012c 80010000 		.word	.LC16
 811 0130 A0010000 		.word	.LC17
 812 0134 A8010000 		.word	.LC18
 813 0138 C8010000 		.word	.LC19
 814 013c EC010000 		.word	.LC20
 815 0140 08020000 		.word	.LC21
 816              		.cfi_endproc
 817              	.LFE67:
 818              		.size	gnome_tx_uart_it, .-gnome_tx_uart_it
 819              		.comm	via_state,3,4
 820              		.comm	gnome_console,16,4
 821              		.comm	gnome_debug_state,18,4
 822              		.comm	rom,256,4
 823              		.comm	registers,16,4
 824              		.comm	current_context,4,4
 825              		.comm	it_context,11,4
 826              		.comm	normal_context,11,4
 827              		.section	.rodata.str1.4,"aMS",%progbits,1
ARM GAS  C:\Users\Javier\AppData\Local\Temp\ccFGMuYp.s 			page 20


 828              		.align	2
 829              	.LC0:
 830 0000 2F2F2F2F 		.ascii	"//////////////////////////////////////\015\012\000"
 830      2F2F2F2F 
 830      2F2F2F2F 
 830      2F2F2F2F 
 830      2F2F2F2F 
 831 0029 000000   		.space	3
 832              	.LC1:
 833 002c 2F2F2D2D 		.ascii	"//---- GNOME DEBUGGING TERMINAL ----//\015\012\000"
 833      2D2D2047 
 833      4E4F4D45 
 833      20444542 
 833      55474749 
 834 0055 000000   		.space	3
 835              	.LC2:
 836 0058 094E6F72 		.ascii	"\011Normal Context\015\012\000"
 836      6D616C20 
 836      436F6E74 
 836      6578740D 
 836      0A00
 837 006a 0000     		.space	2
 838              	.LC3:
 839 006c 09495420 		.ascii	"\011IT Context\015\012\000"
 839      436F6E74 
 839      6578740D 
 839      0A00
 840 007a 0000     		.space	2
 841              	.LC4:
 842 007c 09504320 		.ascii	"\011PC = 0x%02x\015\012\000"
 842      3D203078 
 842      25303278 
 842      0D0A00
 843 008b 00       		.space	1
 844              	.LC5:
 845 008c 09496E73 		.ascii	"\011Instruccion = 0x%02x\015\012\000"
 845      74727563 
 845      63696F6E 
 845      203D2030 
 845      78253032 
 846              	.LC6:
 847 00a4 09416375 		.ascii	"\011Acumulador = 0x%02x\015\012\000"
 847      6D756C61 
 847      646F7220 
 847      3D203078 
 847      25303278 
 848 00bb 00       		.space	1
 849              	.LC7:
 850 00bc 09432C20 		.ascii	"\011C, Z = %d, %d\015\012\000"
 850      5A203D20 
 850      25642C20 
 850      25640D0A 
 850      00
 851 00cd 000000   		.space	3
 852              	.LC8:
 853 00d0 09524547 		.ascii	"\011REG_DIR_INDIRECTO =  0x%02x\015\012\000"
 853      5F444952 
ARM GAS  C:\Users\Javier\AppData\Local\Temp\ccFGMuYp.s 			page 21


 853      5F494E44 
 853      49524543 
 853      544F203D 
 854 00ef 00       		.space	1
 855              	.LC9:
 856 00f0 09524547 		.ascii	"\011REG[%d] = 0x%02x\015\012\000"
 856      5B25645D 
 856      203D2030 
 856      78253032 
 856      780D0A00 
 857              	.LC10:
 858 0104 0D0A00   		.ascii	"\015\012\000"
 859 0107 00       		.space	1
 860              	.LC11:
 861 0108 09535441 		.ascii	"\011STACK[%d] = 0x%02x\015\012\000"
 861      434B5B25 
 861      645D203D 
 861      20307825 
 861      3032780D 
 862 011e 0000     		.space	2
 863              	.LC12:
 864 0120 09535441 		.ascii	"\011STACK_PTR = 0x%02x\015\012\000"
 864      434B5F50 
 864      5452203D 
 864      20307825 
 864      3032780D 
 865 0136 0000     		.space	2
 866              	.LC13:
 867 0138 0D0A0D0A 		.ascii	"\015\012\015\012\000"
 867      00
 868 013d 000000   		.space	3
 869              	.LC14:
 870 0140 52656163 		.ascii	"Reached breakpoint at PC = 0x%02x\015\012\000"
 870      68656420 
 870      62726561 
 870      6B706F69 
 870      6E742061 
 871              	.LC15:
 872 0164 0D0A5052 		.ascii	"\015\012PROCESSOR ON RUN MODE\015\012\015\012\000"
 872      4F434553 
 872      534F5220 
 872      4F4E2052 
 872      554E204D 
 873              	.LC16:
 874 0180 0D0A5052 		.ascii	"\015\012PROCESSOR ON HALT MODE\015\012\015\012\000"
 874      4F434553 
 874      534F5220 
 874      4F4E2048 
 874      414C5420 
 875 019d 000000   		.space	3
 876              	.LC17:
 877 01a0 54423D30 		.ascii	"TB=0x\000"
 877      7800
 878 01a6 0000     		.space	2
 879              	.LC18:
 880 01a8 41637469 		.ascii	"Active breakpoint at 0x%02x\015\012\000"
 880      76652062 
ARM GAS  C:\Users\Javier\AppData\Local\Temp\ccFGMuYp.s 			page 22


 880      7265616B 
 880      706F696E 
 880      74206174 
 881 01c6 0000     		.space	2
 882              	.LC19:
 883 01c8 456C696D 		.ascii	"Eliminated breakpoint at 0x%02x\015\012\000"
 883      696E6174 
 883      65642062 
 883      7265616B 
 883      706F696E 
 884 01ea 0000     		.space	2
 885              	.LC20:
 886 01ec 416C6C20 		.ascii	"All breakpoints are used\015\012\000"
 886      62726561 
 886      6B706F69 
 886      6E747320 
 886      61726520 
 887 0207 00       		.space	1
 888              	.LC21:
 889 0208 4C4200   		.ascii	"LB\000"
 890 020b 00       		.text
 891              	.Letext0:
 892              		.file 2 "c:\\program files (x86)\\cypress\\psoc creator\\3.3\\psoc creator\\import\\gnu\\arm\\4.9.
 893              		.file 3 "c:\\program files (x86)\\cypress\\psoc creator\\3.3\\psoc creator\\import\\gnu\\arm\\4.9.
 894              		.file 4 "Generated_Source\\PSoC5/cytypes.h"
 895              		.file 5 ".\\gnome_registers.h"
 896              		.file 6 ".\\gnome_debug.h"
 897              		.file 7 ".\\gnome_memory.h"
 898              		.file 8 "Generated_Source\\PSoC5/core_cm3.h"
 899              		.file 9 "Generated_Source\\PSoC5/UART.h"
 900              		.file 10 "Generated_Source\\PSoC5/UART_RX_IT.h"
 901              		.file 11 "c:\\program files (x86)\\cypress\\psoc creator\\3.3\\psoc creator\\import\\gnu\\arm\\4.9
 902              		.file 12 "c:\\program files (x86)\\cypress\\psoc creator\\3.3\\psoc creator\\import\\gnu\\arm\\4.9
 903              		.file 13 "c:\\program files (x86)\\cypress\\psoc creator\\3.3\\psoc creator\\import\\gnu\\arm\\4.9