ARM GAS  C:\Users\Javier\AppData\Local\Temp\ccyJyfUE.s 			page 1


   1              		.syntax unified
   2              		.cpu cortex-m3
   3              		.fpu softvfp
   4              		.eabi_attribute 20, 1
   5              		.eabi_attribute 21, 1
   6              		.eabi_attribute 23, 3
   7              		.eabi_attribute 24, 1
   8              		.eabi_attribute 25, 1
   9              		.eabi_attribute 26, 1
  10              		.eabi_attribute 30, 1
  11              		.eabi_attribute 34, 1
  12              		.eabi_attribute 18, 4
  13              		.thumb
  14              		.file	"gnome.c"
  15              		.text
  16              	.Ltext0:
  17              		.cfi_sections	.debug_frame
  18              		.section	.text.gnome_switch_clk,"ax",%progbits
  19              		.align	2
  20              		.global	gnome_switch_clk
  21              		.thumb
  22              		.thumb_func
  23              		.type	gnome_switch_clk, %function
  24              	gnome_switch_clk:
  25              	.LFB63:
  26              		.file 1 ".\\gnome.c"
   1:.\gnome.c     **** /* ========================================
   2:.\gnome.c     ****  *
   3:.\gnome.c     ****  * Copyright YOUR COMPANY, THE YEAR
   4:.\gnome.c     ****  * All Rights Reserved
   5:.\gnome.c     ****  * UNPUBLISHED, LICENSED SOFTWARE.
   6:.\gnome.c     ****  *
   7:.\gnome.c     ****  * CONFIDENTIAL AND PROPRIETARY INFORMATION
   8:.\gnome.c     ****  * WHICH IS THE PROPERTY OF your company.
   9:.\gnome.c     ****  *
  10:.\gnome.c     ****  * ========================================
  11:.\gnome.c     **** */
  12:.\gnome.c     **** 
  13:.\gnome.c     **** #include "gnome.h"
  14:.\gnome.c     **** #include "gnome_config.h"
  15:.\gnome.c     **** #include "gnome_inst_decoder.h"
  16:.\gnome.c     **** #include "gnome_execute.h"
  17:.\gnome.c     **** #include "gnome_memory.h"
  18:.\gnome.c     **** #include "gnome_lcd.h"
  19:.\gnome.c     **** #include "gnome_debug.h"
  20:.\gnome.c     **** #include "gnome_it.h"
  21:.\gnome.c     **** 
  22:.\gnome.c     **** void gnome_switch_clk() {
  27              		.loc 1 22 0
  28              		.cfi_startproc
  29              		@ args = 0, pretend = 0, frame = 0
  30              		@ frame_needed = 0, uses_anonymous_args = 0
  31              		@ link register save eliminated.
  32 0000 7047     		bx	lr
  33              		.cfi_endproc
  34              	.LFE63:
  35              		.size	gnome_switch_clk, .-gnome_switch_clk
ARM GAS  C:\Users\Javier\AppData\Local\Temp\ccyJyfUE.s 			page 2


  36 0002 00BF     		.section	.text.gnome_assert_reset,"ax",%progbits
  37              		.align	2
  38              		.global	gnome_assert_reset
  39              		.thumb
  40              		.thumb_func
  41              		.type	gnome_assert_reset, %function
  42              	gnome_assert_reset:
  43              	.LFB64:
  23:.\gnome.c     ****     #ifndef GNOME_VIA1_GNOME_CLK_OPT_OUT 
  24:.\gnome.c     ****         // Set CLK pointer
  25:.\gnome.c     ****         reg8 *clk = GNOME_VIA1_GNOME_CLK_ADDR;
  26:.\gnome.c     ****         *clk = !*clk;
  27:.\gnome.c     ****     #endif
  28:.\gnome.c     ****     #ifndef GNOME_VIA2_GNOME_CLK_OPT_OUT 
  29:.\gnome.c     ****         #if GNOME_VIA2_ACTIVE
  30:.\gnome.c     ****         // Set CLK pointer
  31:.\gnome.c     ****         reg8 *clk = GNOME_VIA2_GNOME_CLK_ADDR;
  32:.\gnome.c     ****         *clk = !*clk;
  33:.\gnome.c     ****         #endif
  34:.\gnome.c     ****     #endif
  35:.\gnome.c     **** }
  36:.\gnome.c     **** 
  37:.\gnome.c     **** void gnome_assert_reset() {
  44              		.loc 1 37 0
  45              		.cfi_startproc
  46              		@ args = 0, pretend = 0, frame = 0
  47              		@ frame_needed = 0, uses_anonymous_args = 0
  48              		.loc 1 37 0
  49 0000 10B5     		push	{r4, lr}
  50              		.cfi_def_cfa_offset 8
  51              		.cfi_offset 4, -8
  52              		.cfi_offset 14, -4
  38:.\gnome.c     ****     #ifndef GNOME_VIA1_GNOME_RES_OPT_OUT 
  39:.\gnome.c     ****         // Set CLK pointer
  40:.\gnome.c     ****         *((reg8*)GNOME_VIA1_GNOME_RES_ADDR) = 1;
  53              		.loc 1 40 0
  54 0002 044C     		ldr	r4, .L4
  55 0004 0120     		movs	r0, #1
  56 0006 2070     		strb	r0, [r4]
  41:.\gnome.c     ****         CyDelay(1);
  57              		.loc 1 41 0
  58 0008 FFF7FEFF 		bl	CyDelay
  59              	.LVL0:
  42:.\gnome.c     ****         *((reg8*)GNOME_VIA1_GNOME_RES_ADDR) = 0;
  60              		.loc 1 42 0
  61 000c 0023     		movs	r3, #0
  62 000e 2370     		strb	r3, [r4]
  63 0010 10BD     		pop	{r4, pc}
  64              	.L5:
  65 0012 00BF     		.align	2
  66              	.L4:
  67 0014 74640040 		.word	1073767540
  68              		.cfi_endproc
  69              	.LFE64:
  70              		.size	gnome_assert_reset, .-gnome_assert_reset
  71              		.section	.text.gnome_power_on_reset,"ax",%progbits
  72              		.align	2
ARM GAS  C:\Users\Javier\AppData\Local\Temp\ccyJyfUE.s 			page 3


  73              		.global	gnome_power_on_reset
  74              		.thumb
  75              		.thumb_func
  76              		.type	gnome_power_on_reset, %function
  77              	gnome_power_on_reset:
  78              	.LFB65:
  43:.\gnome.c     ****     #endif
  44:.\gnome.c     ****     
  45:.\gnome.c     ****     #ifndef GNOME_VIA2_GNOME_RES_OPT_OUT 
  46:.\gnome.c     ****         #if GNOME_VIA2_ACTIVE
  47:.\gnome.c     ****         // Set CLK pointer
  48:.\gnome.c     ****         *((reg8*)GNOME_VIA2_GNOME_RES_ADDR) = 1;
  49:.\gnome.c     ****         CyDelay(1);
  50:.\gnome.c     ****         *((reg8*)GNOME_VIA2_GNOME_RES_ADDR) = 0;
  51:.\gnome.c     ****         #endif
  52:.\gnome.c     ****     #endif
  53:.\gnome.c     **** }
  54:.\gnome.c     **** 
  55:.\gnome.c     **** void gnome_power_on_reset() {
  79              		.loc 1 55 0
  80              		.cfi_startproc
  81              		@ args = 0, pretend = 0, frame = 0
  82              		@ frame_needed = 0, uses_anonymous_args = 0
  83 0000 10B5     		push	{r4, lr}
  84              		.cfi_def_cfa_offset 8
  85              		.cfi_offset 4, -8
  86              		.cfi_offset 14, -4
  56:.\gnome.c     ****     // Se realiza la lectura de los c贸digos de operacion a ejecutar desde la EEPROM.
  57:.\gnome.c     ****     // Inicializa EEPROM
  58:.\gnome.c     ****     EEPROM_Start();
  87              		.loc 1 58 0
  88 0002 FFF7FEFF 		bl	EEPROM_Start
  89              	.LVL1:
  59:.\gnome.c     ****     
  60:.\gnome.c     ****     // Inicializa contexto normal
  61:.\gnome.c     ****     normal_context.accumulator = 0;
  90              		.loc 1 61 0
  91 0006 1B4A     		ldr	r2, .L14
  92 0008 0023     		movs	r3, #0
  93 000a 1370     		strb	r3, [r2]
  62:.\gnome.c     ****     normal_context.flags.C = 0;
  94              		.loc 1 62 0
  95 000c 5370     		strb	r3, [r2, #1]
  63:.\gnome.c     ****     normal_context.flags.Z = 0;
  96              		.loc 1 63 0
  97 000e 9370     		strb	r3, [r2, #2]
  64:.\gnome.c     ****     normal_context.ind_addr_reg.data = 0;
  98              		.loc 1 64 0
  99 0010 5372     		strb	r3, [r2, #9]
  65:.\gnome.c     ****     normal_context.ind_addr_reg.ptr = 0;
 100              		.loc 1 65 0
 101 0012 9372     		strb	r3, [r2, #10]
  66:.\gnome.c     ****     normal_context.PC = GNOME_RESET_VECTOR;
 102              		.loc 1 66 0
 103 0014 D370     		strb	r3, [r2, #3]
  67:.\gnome.c     ****     normal_context.stack.ptr = 0;
 104              		.loc 1 67 0
ARM GAS  C:\Users\Javier\AppData\Local\Temp\ccyJyfUE.s 			page 4


 105 0016 1372     		strb	r3, [r2, #8]
 106              	.LVL2:
  68:.\gnome.c     ****     
  69:.\gnome.c     ****     int i = 0;
  70:.\gnome.c     ****     for (i = 0; i < GNOME_STACK_SIZE; i++) {
 107              		.loc 1 70 0
 108 0018 04E0     		b	.L7
 109              	.LVL3:
 110              	.L8:
  71:.\gnome.c     ****         normal_context.stack.data[i] = 0;
 111              		.loc 1 71 0 discriminator 3
 112 001a 164A     		ldr	r2, .L14
 113 001c 1A44     		add	r2, r2, r3
 114 001e 0021     		movs	r1, #0
 115 0020 1171     		strb	r1, [r2, #4]
  70:.\gnome.c     ****         normal_context.stack.data[i] = 0;
 116              		.loc 1 70 0 discriminator 3
 117 0022 0133     		adds	r3, r3, #1
 118              	.LVL4:
 119              	.L7:
  70:.\gnome.c     ****         normal_context.stack.data[i] = 0;
 120              		.loc 1 70 0 is_stmt 0 discriminator 1
 121 0024 032B     		cmp	r3, #3
 122 0026 F8DD     		ble	.L8
  72:.\gnome.c     ****     }
  73:.\gnome.c     ****     
  74:.\gnome.c     ****     // Inicializa contexto interrupci贸n
  75:.\gnome.c     ****     it_context.accumulator = 0;
 123              		.loc 1 75 0 is_stmt 1
 124 0028 134A     		ldr	r2, .L14+4
 125 002a 0023     		movs	r3, #0
 126              	.LVL5:
 127 002c 1370     		strb	r3, [r2]
  76:.\gnome.c     ****     it_context.flags.C = 0;
 128              		.loc 1 76 0
 129 002e 5370     		strb	r3, [r2, #1]
  77:.\gnome.c     ****     it_context.flags.Z = 0;
 130              		.loc 1 77 0
 131 0030 9370     		strb	r3, [r2, #2]
  78:.\gnome.c     ****     it_context.ind_addr_reg.data = 0;
 132              		.loc 1 78 0
 133 0032 5372     		strb	r3, [r2, #9]
  79:.\gnome.c     ****     it_context.ind_addr_reg.ptr = 0;
 134              		.loc 1 79 0
 135 0034 9372     		strb	r3, [r2, #10]
  80:.\gnome.c     ****     it_context.PC = GNOME_IT_VECTOR;
 136              		.loc 1 80 0
 137 0036 E021     		movs	r1, #224
 138 0038 D170     		strb	r1, [r2, #3]
  81:.\gnome.c     ****     it_context.stack.ptr = 0;
 139              		.loc 1 81 0
 140 003a 1372     		strb	r3, [r2, #8]
 141              	.LVL6:
  82:.\gnome.c     ****     
  83:.\gnome.c     ****     for (i = 0; i < GNOME_STACK_SIZE; i++) {
 142              		.loc 1 83 0
 143 003c 04E0     		b	.L9
ARM GAS  C:\Users\Javier\AppData\Local\Temp\ccyJyfUE.s 			page 5


 144              	.LVL7:
 145              	.L10:
  84:.\gnome.c     ****         it_context.stack.data[i] = 0;
 146              		.loc 1 84 0 discriminator 3
 147 003e 0E4A     		ldr	r2, .L14+4
 148 0040 1A44     		add	r2, r2, r3
 149 0042 0021     		movs	r1, #0
 150 0044 1171     		strb	r1, [r2, #4]
  83:.\gnome.c     ****         it_context.stack.data[i] = 0;
 151              		.loc 1 83 0 discriminator 3
 152 0046 0133     		adds	r3, r3, #1
 153              	.LVL8:
 154              	.L9:
  83:.\gnome.c     ****         it_context.stack.data[i] = 0;
 155              		.loc 1 83 0 is_stmt 0 discriminator 1
 156 0048 032B     		cmp	r3, #3
 157 004a F8DD     		ble	.L10
  85:.\gnome.c     ****     }
  86:.\gnome.c     ****     
  87:.\gnome.c     ****     // Inicializa puertos de memoria
  88:.\gnome.c     ****     via_state.port0_ptr = 0;
 158              		.loc 1 88 0 is_stmt 1
 159 004c 0B4B     		ldr	r3, .L14+8
 160              	.LVL9:
 161 004e 0024     		movs	r4, #0
 162 0050 5C70     		strb	r4, [r3, #1]
  89:.\gnome.c     ****     via_state.port1_ptr = 0;
 163              		.loc 1 89 0
 164 0052 9C70     		strb	r4, [r3, #2]
  90:.\gnome.c     ****     
  91:.\gnome.c     ****     // Asignamos el contexto de ejecuci贸n
  92:.\gnome.c     ****     current_context = &normal_context;
 165              		.loc 1 92 0
 166 0054 074A     		ldr	r2, .L14
 167 0056 0A4B     		ldr	r3, .L14+12
 168 0058 1A60     		str	r2, [r3]
 169              	.LVL10:
  93:.\gnome.c     ****     
  94:.\gnome.c     ****     // Carga la memoria de programa desde la EEPROM en RAM
  95:.\gnome.c     ****     for(i = 0; i < 256; i++) {
 170              		.loc 1 95 0
 171 005a 05E0     		b	.L11
 172              	.LVL11:
 173              	.L12:
  96:.\gnome.c     ****         rom[i] = EEPROM_ReadByte(i);
 174              		.loc 1 96 0 discriminator 3
 175 005c A0B2     		uxth	r0, r4
 176 005e FFF7FEFF 		bl	EEPROM_ReadByte
 177              	.LVL12:
 178 0062 084B     		ldr	r3, .L14+16
 179 0064 1855     		strb	r0, [r3, r4]
  95:.\gnome.c     ****         rom[i] = EEPROM_ReadByte(i);
 180              		.loc 1 95 0 discriminator 3
 181 0066 0134     		adds	r4, r4, #1
 182              	.LVL13:
 183              	.L11:
  95:.\gnome.c     ****         rom[i] = EEPROM_ReadByte(i);
ARM GAS  C:\Users\Javier\AppData\Local\Temp\ccyJyfUE.s 			page 6


 184              		.loc 1 95 0 is_stmt 0 discriminator 1
 185 0068 FF2C     		cmp	r4, #255
 186 006a F7DD     		ble	.L12
  97:.\gnome.c     ****     }
  98:.\gnome.c     ****     
  99:.\gnome.c     ****     gnome_assert_reset();
 187              		.loc 1 99 0 is_stmt 1
 188 006c FFF7FEFF 		bl	gnome_assert_reset
 189              	.LVL14:
 190 0070 10BD     		pop	{r4, pc}
 191              	.LVL15:
 192              	.L15:
 193 0072 00BF     		.align	2
 194              	.L14:
 195 0074 00000000 		.word	normal_context
 196 0078 00000000 		.word	it_context
 197 007c 00000000 		.word	via_state
 198 0080 00000000 		.word	current_context
 199 0084 00000000 		.word	rom
 200              		.cfi_endproc
 201              	.LFE65:
 202              		.size	gnome_power_on_reset, .-gnome_power_on_reset
 203              		.section	.text.gnome_start,"ax",%progbits
 204              		.align	2
 205              		.global	gnome_start
 206              		.thumb
 207              		.thumb_func
 208              		.type	gnome_start, %function
 209              	gnome_start:
 210              	.LFB66:
 100:.\gnome.c     **** }
 101:.\gnome.c     **** 
 102:.\gnome.c     **** void gnome_start() {
 211              		.loc 1 102 0
 212              		.cfi_startproc
 213              		@ args = 0, pretend = 0, frame = 0
 214              		@ frame_needed = 0, uses_anonymous_args = 0
 215 0000 10B5     		push	{r4, lr}
 216              		.cfi_def_cfa_offset 8
 217              		.cfi_offset 4, -8
 218              		.cfi_offset 14, -4
 103:.\gnome.c     **** 
 104:.\gnome.c     ****     // Config LCD
 105:.\gnome.c     ****     setup_lcd(&lcd);
 219              		.loc 1 105 0
 220 0002 1048     		ldr	r0, .L19
 221 0004 FFF7FEFF 		bl	setup_lcd
 222              	.LVL16:
 106:.\gnome.c     ****     
 107:.\gnome.c     ****     // Reset del micro
 108:.\gnome.c     ****     gnome_power_on_reset();
 223              		.loc 1 108 0
 224 0008 FFF7FEFF 		bl	gnome_power_on_reset
 225              	.LVL17:
 109:.\gnome.c     ****     
 110:.\gnome.c     ****     // Inicializaci贸n del debugger
 111:.\gnome.c     ****     gnome_debug_init();
ARM GAS  C:\Users\Javier\AppData\Local\Temp\ccyJyfUE.s 			page 7


 226              		.loc 1 111 0
 227 000c FFF7FEFF 		bl	gnome_debug_init
 228              	.LVL18:
 112:.\gnome.c     ****     
 113:.\gnome.c     ****     // Habilitar interrupciones
 114:.\gnome.c     ****     gnome_it_init();
 229              		.loc 1 114 0
 230 0010 FFF7FEFF 		bl	gnome_it_init
 231              	.LVL19:
 115:.\gnome.c     ****     
 116:.\gnome.c     ****     uint8_t code = 0;
 232              		.loc 1 116 0
 233 0014 0024     		movs	r4, #0
 234              	.LVL20:
 235              	.L17:
 236              	.LBB2:
 117:.\gnome.c     ****     while(1) {
 118:.\gnome.c     ****         
 119:.\gnome.c     ****         gnome_debug_loop(code);
 237              		.loc 1 119 0 discriminator 1
 238 0016 2046     		mov	r0, r4
 239 0018 FFF7FEFF 		bl	gnome_debug_loop
 240              	.LVL21:
 120:.\gnome.c     ****         update_lcd(&lcd);
 241              		.loc 1 120 0 discriminator 1
 242 001c 0948     		ldr	r0, .L19
 243 001e FFF7FEFF 		bl	update_lcd
 244              	.LVL22:
 121:.\gnome.c     ****         
 122:.\gnome.c     ****         CyGlobalIntDisable;
 245              		.loc 1 122 0 discriminator 1
 246              	@ 122 ".\gnome.c" 1
 247 0022 72B6     		CPSID   i
 248              	@ 0 "" 2
 123:.\gnome.c     ****         
 124:.\gnome.c     ****         gnome_switch_clk();
 125:.\gnome.c     ****         
 126:.\gnome.c     ****         // Fetch Instruction & Increment PC
 127:.\gnome.c     ****         code = rom[current_context->PC & 0xFF]; 
 249              		.loc 1 127 0 discriminator 1
 250              		.thumb
 251 0024 084B     		ldr	r3, .L19+4
 252 0026 1A68     		ldr	r2, [r3]
 253 0028 D378     		ldrb	r3, [r2, #3]	@ zero_extendqisi2
 254 002a 0849     		ldr	r1, .L19+8
 255 002c CC5C     		ldrb	r4, [r1, r3]	@ zero_extendqisi2
 256              	.LVL23:
 128:.\gnome.c     ****         current_context->PC++;
 257              		.loc 1 128 0 discriminator 1
 258 002e 0133     		adds	r3, r3, #1
 259 0030 D370     		strb	r3, [r2, #3]
 129:.\gnome.c     ****         
 130:.\gnome.c     ****         gnome_switch_clk();
 131:.\gnome.c     ****         gnome_switch_clk();
 132:.\gnome.c     ****         
 133:.\gnome.c     ****         // Decode Instruction
 134:.\gnome.c     ****         inst_enum inst = decodeInstruction(code);
ARM GAS  C:\Users\Javier\AppData\Local\Temp\ccyJyfUE.s 			page 8


 260              		.loc 1 134 0 discriminator 1
 261 0032 2046     		mov	r0, r4
 262 0034 FFF7FEFF 		bl	decodeInstruction
 263              	.LVL24:
 135:.\gnome.c     ****         
 136:.\gnome.c     ****         gnome_switch_clk();
 137:.\gnome.c     ****         gnome_switch_clk();
 138:.\gnome.c     ****         
 139:.\gnome.c     ****         // Execute instruction
 140:.\gnome.c     ****         exectute(inst, code);
 264              		.loc 1 140 0 discriminator 1
 265 0038 2146     		mov	r1, r4
 266 003a FFF7FEFF 		bl	exectute
 267              	.LVL25:
 141:.\gnome.c     ****         
 142:.\gnome.c     ****         gnome_switch_clk();
 143:.\gnome.c     ****                 
 144:.\gnome.c     ****         // Habilitar interrupciones entre instrucciones
 145:.\gnome.c     ****         CYGlobalIntEnable;
 268              		.loc 1 145 0 discriminator 1
 269              	@ 145 ".\gnome.c" 1
 270 003e 62B6     		CPSIE   i
 271              	@ 0 "" 2
 272              		.thumb
 273              	.LBE2:
 146:.\gnome.c     ****     }
 274              		.loc 1 146 0 discriminator 1
 275 0040 E9E7     		b	.L17
 276              	.L20:
 277 0042 00BF     		.align	2
 278              	.L19:
 279 0044 00000000 		.word	lcd
 280 0048 00000000 		.word	current_context
 281 004c 00000000 		.word	rom
 282              		.cfi_endproc
 283              	.LFE66:
 284              		.size	gnome_start, .-gnome_start
 285              		.comm	gnome_console,16,4
 286              		.comm	gnome_debug_state,18,4
 287              		.comm	lcd_update,1,1
 288              		.comm	lcd,134,4
 289              		.comm	via_state,3,4
 290              		.comm	rom,256,4
 291              		.comm	registers,16,4
 292              		.comm	current_context,4,4
 293              		.comm	it_context,11,4
 294              		.comm	normal_context,11,4
 295              		.text
 296              	.Letext0:
 297              		.file 2 "c:\\program files (x86)\\cypress\\psoc creator\\3.3\\psoc creator\\import\\gnu\\arm\\4.9.
 298              		.file 3 "c:\\program files (x86)\\cypress\\psoc creator\\3.3\\psoc creator\\import\\gnu\\arm\\4.9.
 299              		.file 4 "Generated_Source\\PSoC5/cytypes.h"
 300              		.file 5 ".\\gnome_registers.h"
 301              		.file 6 ".\\gnome_memory.h"
 302              		.file 7 ".\\i2cLCD.h"
 303              		.file 8 ".\\gnome_debug.h"
 304              		.file 9 "Generated_Source\\PSoC5/core_cm3.h"
ARM GAS  C:\Users\Javier\AppData\Local\Temp\ccyJyfUE.s 			page 9


 305              		.file 10 ".\\gnome_lcd.h"
 306              		.file 11 "Generated_Source\\PSoC5/CyLib.h"
 307              		.file 12 "Generated_Source\\PSoC5/EEPROM.h"
 308              		.file 13 ".\\gnome_inst_decoder.h"
 309              		.file 14 ".\\gnome_execute.h"
 310              		.file 15 ".\\gnome_it.h"