ARM GAS  C:\Users\Javier\AppData\Local\Temp\ccZhYLXV.s 			page 1


   1              		.syntax unified
   2              		.cpu cortex-m3
   3              		.fpu softvfp
   4              		.eabi_attribute 20, 1
   5              		.eabi_attribute 21, 1
   6              		.eabi_attribute 23, 3
   7              		.eabi_attribute 24, 1
   8              		.eabi_attribute 25, 1
   9              		.eabi_attribute 26, 1
  10              		.eabi_attribute 30, 1
  11              		.eabi_attribute 34, 1
  12              		.eabi_attribute 18, 4
  13              		.thumb
  14              		.file	"gnome_lcd.c"
  15              		.text
  16              	.Ltext0:
  17              		.cfi_sections	.debug_frame
  18              		.section	.text.update_lcd_it,"ax",%progbits
  19              		.align	2
  20              		.global	update_lcd_it
  21              		.thumb
  22              		.thumb_func
  23              		.type	update_lcd_it, %function
  24              	update_lcd_it:
  25              	.LFB64:
  26              		.file 1 ".\\gnome_lcd.c"
   1:.\gnome_lcd.c **** /* ========================================
   2:.\gnome_lcd.c ****  *
   3:.\gnome_lcd.c ****  * Copyright YOUR COMPANY, THE YEAR
   4:.\gnome_lcd.c ****  * All Rights Reserved
   5:.\gnome_lcd.c ****  * UNPUBLISHED, LICENSED SOFTWARE.
   6:.\gnome_lcd.c ****  *
   7:.\gnome_lcd.c ****  * CONFIDENTIAL AND PROPRIETARY INFORMATION
   8:.\gnome_lcd.c ****  * WHICH IS THE PROPERTY OF your company.
   9:.\gnome_lcd.c ****  *
  10:.\gnome_lcd.c ****  * ========================================
  11:.\gnome_lcd.c **** */
  12:.\gnome_lcd.c **** 
  13:.\gnome_lcd.c **** #include "gnome_lcd.h"
  14:.\gnome_lcd.c **** 
  15:.\gnome_lcd.c **** void update_lcd_it();
  16:.\gnome_lcd.c **** 
  17:.\gnome_lcd.c **** void setup_lcd() {
  18:.\gnome_lcd.c ****     #if (GNOME_LCD_MODULE_ACTIVE)
  19:.\gnome_lcd.c ****         I2C_Start();
  20:.\gnome_lcd.c ****         
  21:.\gnome_lcd.c ****         i2cLCD_Init(&lcd, GNOME_LCD_MODULE_I2C_ADDR, LCD_BACKLIGHTON);
  22:.\gnome_lcd.c ****         i2cLCD_SetPosition(&lcd, 0, 0);
  23:.\gnome_lcd.c ****         i2cLCD_Print(&lcd, GNOME_LCD_MODULE_MSG1);
  24:.\gnome_lcd.c ****         i2cLCD_SetPosition(&lcd, 1, 0);
  25:.\gnome_lcd.c ****         i2cLCD_Print(&lcd, GNOME_LCD_MODULE_MSG2);
  26:.\gnome_lcd.c ****         i2cLCD_SetBlink(&lcd,LCD_BLINKON);
  27:.\gnome_lcd.c ****         
  28:.\gnome_lcd.c ****         CySysTickStart();
  29:.\gnome_lcd.c ****         CySysTickSetCallback(4,(void*)update_lcd_it);
  30:.\gnome_lcd.c ****         lcd_update = 1;
  31:.\gnome_lcd.c **** 
ARM GAS  C:\Users\Javier\AppData\Local\Temp\ccZhYLXV.s 			page 2


  32:.\gnome_lcd.c ****     #endif
  33:.\gnome_lcd.c **** }
  34:.\gnome_lcd.c **** 
  35:.\gnome_lcd.c **** void update_lcd_it() {
  27              		.loc 1 35 0
  28              		.cfi_startproc
  29              		@ args = 0, pretend = 0, frame = 0
  30              		@ frame_needed = 0, uses_anonymous_args = 0
  31 0000 08B5     		push	{r3, lr}
  32              		.cfi_def_cfa_offset 8
  33              		.cfi_offset 3, -8
  34              		.cfi_offset 14, -4
  36:.\gnome_lcd.c ****     if ((CySysTickGetValue() & 0x3F) == 0x3F) {
  35              		.loc 1 36 0
  36 0002 FFF7FEFF 		bl	CySysTickGetValue
  37              	.LVL0:
  38 0006 00F03F00 		and	r0, r0, #63
  39 000a 3F28     		cmp	r0, #63
  40 000c 02D1     		bne	.L1
  37:.\gnome_lcd.c ****         lcd_update = 1;
  41              		.loc 1 37 0
  42 000e 0122     		movs	r2, #1
  43 0010 014B     		ldr	r3, .L4
  44 0012 1A70     		strb	r2, [r3]
  45              	.L1:
  46 0014 08BD     		pop	{r3, pc}
  47              	.L5:
  48 0016 00BF     		.align	2
  49              	.L4:
  50 0018 00000000 		.word	lcd_update
  51              		.cfi_endproc
  52              	.LFE64:
  53              		.size	update_lcd_it, .-update_lcd_it
  54              		.section	.text.setup_lcd,"ax",%progbits
  55              		.align	2
  56              		.global	setup_lcd
  57              		.thumb
  58              		.thumb_func
  59              		.type	setup_lcd, %function
  60              	setup_lcd:
  61              	.LFB63:
  17:.\gnome_lcd.c ****     #if (GNOME_LCD_MODULE_ACTIVE)
  62              		.loc 1 17 0
  63              		.cfi_startproc
  64              		@ args = 0, pretend = 0, frame = 0
  65              		@ frame_needed = 0, uses_anonymous_args = 0
  66 0000 10B5     		push	{r4, lr}
  67              		.cfi_def_cfa_offset 8
  68              		.cfi_offset 4, -8
  69              		.cfi_offset 14, -4
  19:.\gnome_lcd.c ****         
  70              		.loc 1 19 0
  71 0002 FFF7FEFF 		bl	I2C_Start
  72              	.LVL1:
  21:.\gnome_lcd.c ****         i2cLCD_SetPosition(&lcd, 0, 0);
  73              		.loc 1 21 0
  74 0006 134C     		ldr	r4, .L8
ARM GAS  C:\Users\Javier\AppData\Local\Temp\ccZhYLXV.s 			page 3


  75 0008 2046     		mov	r0, r4
  76 000a 2721     		movs	r1, #39
  77 000c 0822     		movs	r2, #8
  78 000e FFF7FEFF 		bl	i2cLCD_Init
  79              	.LVL2:
  22:.\gnome_lcd.c ****         i2cLCD_Print(&lcd, GNOME_LCD_MODULE_MSG1);
  80              		.loc 1 22 0
  81 0012 2046     		mov	r0, r4
  82 0014 0021     		movs	r1, #0
  83 0016 0A46     		mov	r2, r1
  84 0018 FFF7FEFF 		bl	i2cLCD_SetPosition
  85              	.LVL3:
  23:.\gnome_lcd.c ****         i2cLCD_SetPosition(&lcd, 1, 0);
  86              		.loc 1 23 0
  87 001c 2046     		mov	r0, r4
  88 001e 0E49     		ldr	r1, .L8+4
  89 0020 FFF7FEFF 		bl	i2cLCD_Print
  90              	.LVL4:
  24:.\gnome_lcd.c ****         i2cLCD_Print(&lcd, GNOME_LCD_MODULE_MSG2);
  91              		.loc 1 24 0
  92 0024 2046     		mov	r0, r4
  93 0026 0121     		movs	r1, #1
  94 0028 0022     		movs	r2, #0
  95 002a FFF7FEFF 		bl	i2cLCD_SetPosition
  96              	.LVL5:
  25:.\gnome_lcd.c ****         i2cLCD_SetBlink(&lcd,LCD_BLINKON);
  97              		.loc 1 25 0
  98 002e 2046     		mov	r0, r4
  99 0030 0A49     		ldr	r1, .L8+8
 100 0032 FFF7FEFF 		bl	i2cLCD_Print
 101              	.LVL6:
  26:.\gnome_lcd.c ****         
 102              		.loc 1 26 0
 103 0036 2046     		mov	r0, r4
 104 0038 0121     		movs	r1, #1
 105 003a FFF7FEFF 		bl	i2cLCD_SetBlink
 106              	.LVL7:
  28:.\gnome_lcd.c ****         CySysTickSetCallback(4,(void*)update_lcd_it);
 107              		.loc 1 28 0
 108 003e FFF7FEFF 		bl	CySysTickStart
 109              	.LVL8:
  29:.\gnome_lcd.c ****         lcd_update = 1;
 110              		.loc 1 29 0
 111 0042 0420     		movs	r0, #4
 112 0044 0649     		ldr	r1, .L8+12
 113 0046 FFF7FEFF 		bl	CySysTickSetCallback
 114              	.LVL9:
  30:.\gnome_lcd.c **** 
 115              		.loc 1 30 0
 116 004a 0122     		movs	r2, #1
 117 004c 054B     		ldr	r3, .L8+16
 118 004e 1A70     		strb	r2, [r3]
 119 0050 10BD     		pop	{r4, pc}
 120              	.L9:
 121 0052 00BF     		.align	2
 122              	.L8:
 123 0054 00000000 		.word	lcd
ARM GAS  C:\Users\Javier\AppData\Local\Temp\ccZhYLXV.s 			page 4


 124 0058 00000000 		.word	.LC0
 125 005c 08000000 		.word	.LC1
 126 0060 00000000 		.word	update_lcd_it
 127 0064 00000000 		.word	lcd_update
 128              		.cfi_endproc
 129              	.LFE63:
 130              		.size	setup_lcd, .-setup_lcd
 131              		.section	.text.update_lcd,"ax",%progbits
 132              		.align	2
 133              		.global	update_lcd
 134              		.thumb
 135              		.thumb_func
 136              		.type	update_lcd, %function
 137              	update_lcd:
 138              	.LFB65:
  38:.\gnome_lcd.c ****     }
  39:.\gnome_lcd.c **** }
  40:.\gnome_lcd.c **** 
  41:.\gnome_lcd.c **** void update_lcd() {
 139              		.loc 1 41 0
 140              		.cfi_startproc
 141              		@ args = 0, pretend = 0, frame = 8
 142              		@ frame_needed = 0, uses_anonymous_args = 0
 143 0000 30B5     		push	{r4, r5, lr}
 144              		.cfi_def_cfa_offset 12
 145              		.cfi_offset 4, -12
 146              		.cfi_offset 5, -8
 147              		.cfi_offset 14, -4
 148 0002 83B0     		sub	sp, sp, #12
 149              		.cfi_def_cfa_offset 24
 150              	.LVL10:
  42:.\gnome_lcd.c ****     #if (GNOME_LCD_MODULE_ACTIVE) 
  43:.\gnome_lcd.c ****         char str[5];
  44:.\gnome_lcd.c ****         #ifndef GNOME_LCD_A_OPT_OUT
  45:.\gnome_lcd.c ****             reg8* a = GNOME_LCD_A_ADDR;
  46:.\gnome_lcd.c ****             i2cLCD_SetPosition(&lcd, 0, GNOME_LCD_LINE_OFFSET1);
 151              		.loc 1 46 0
 152 0004 124C     		ldr	r4, .L12
 153 0006 2046     		mov	r0, r4
 154 0008 0021     		movs	r1, #0
 155 000a 0622     		movs	r2, #6
 156 000c FFF7FEFF 		bl	i2cLCD_SetPosition
 157              	.LVL11:
  47:.\gnome_lcd.c ****             sprintf(str, "%02x", *a);
 158              		.loc 1 47 0
 159 0010 104B     		ldr	r3, .L12+4
 160 0012 1A78     		ldrb	r2, [r3]	@ zero_extendqisi2
 161 0014 104D     		ldr	r5, .L12+8
 162 0016 6846     		mov	r0, sp
 163 0018 2946     		mov	r1, r5
 164 001a FFF7FEFF 		bl	sprintf
 165              	.LVL12:
  48:.\gnome_lcd.c ****             i2cLCD_Print(&lcd, str);
 166              		.loc 1 48 0
 167 001e 2046     		mov	r0, r4
 168 0020 6946     		mov	r1, sp
 169 0022 FFF7FEFF 		bl	i2cLCD_Print
ARM GAS  C:\Users\Javier\AppData\Local\Temp\ccZhYLXV.s 			page 5


 170              	.LVL13:
  49:.\gnome_lcd.c ****         #endif
  50:.\gnome_lcd.c ****         #ifndef GNOME_LCD_B_OPT_OUT 
  51:.\gnome_lcd.c ****             reg8* b = GNOME_LCD_B_ADDR;
  52:.\gnome_lcd.c ****             i2cLCD_SetPosition(&lcd, 1, GNOME_LCD_LINE_OFFSET2);
 171              		.loc 1 52 0
 172 0026 2046     		mov	r0, r4
 173 0028 0121     		movs	r1, #1
 174 002a 0622     		movs	r2, #6
 175 002c FFF7FEFF 		bl	i2cLCD_SetPosition
 176              	.LVL14:
  53:.\gnome_lcd.c ****             sprintf(str, "%02x", *b);
 177              		.loc 1 53 0
 178 0030 0A4B     		ldr	r3, .L12+12
 179 0032 1A78     		ldrb	r2, [r3]	@ zero_extendqisi2
 180 0034 6846     		mov	r0, sp
 181 0036 2946     		mov	r1, r5
 182 0038 FFF7FEFF 		bl	sprintf
 183              	.LVL15:
  54:.\gnome_lcd.c ****             i2cLCD_Print(&lcd, str);
 184              		.loc 1 54 0
 185 003c 2046     		mov	r0, r4
 186 003e 6946     		mov	r1, sp
 187 0040 FFF7FEFF 		bl	i2cLCD_Print
 188              	.LVL16:
  55:.\gnome_lcd.c ****         #endif
  56:.\gnome_lcd.c ****         
  57:.\gnome_lcd.c ****     #endif
  58:.\gnome_lcd.c ****     lcd_update = 0;
 189              		.loc 1 58 0
 190 0044 0022     		movs	r2, #0
 191 0046 064B     		ldr	r3, .L12+16
 192 0048 1A70     		strb	r2, [r3]
  59:.\gnome_lcd.c **** }
 193              		.loc 1 59 0
 194 004a 03B0     		add	sp, sp, #12
 195              		.cfi_def_cfa_offset 12
 196              		@ sp needed
 197 004c 30BD     		pop	{r4, r5, pc}
 198              	.L13:
 199 004e 00BF     		.align	2
 200              	.L12:
 201 0050 00000000 		.word	lcd
 202 0054 60640040 		.word	1073767520
 203 0058 10000000 		.word	.LC2
 204 005c 63640040 		.word	1073767523
 205 0060 00000000 		.word	lcd_update
 206              		.cfi_endproc
 207              	.LFE65:
 208              		.size	update_lcd, .-update_lcd
 209              		.comm	lcd_update,1,1
 210              		.comm	lcd,134,4
 211              		.section	.rodata.str1.4,"aMS",%progbits,1
 212              		.align	2
 213              	.LC0:
 214 0000 43473A20 		.ascii	"CG: 0x\000"
 214      307800
ARM GAS  C:\Users\Javier\AppData\Local\Temp\ccZhYLXV.s 			page 6


 215 0007 00       		.space	1
 216              	.LC1:
 217 0008 43503A20 		.ascii	"CP: 0x\000"
 217      307800
 218 000f 00       		.space	1
 219              	.LC2:
 220 0010 25303278 		.ascii	"%02x\000"
 220      00
 221 0015 000000   		.text
 222              	.Letext0:
 223              		.file 2 "c:\\program files (x86)\\cypress\\psoc creator\\3.3\\psoc creator\\import\\gnu\\arm\\4.9.
 224              		.file 3 "c:\\program files (x86)\\cypress\\psoc creator\\3.3\\psoc creator\\import\\gnu\\arm\\4.9.
 225              		.file 4 "Generated_Source\\PSoC5/cytypes.h"
 226              		.file 5 "Generated_Source\\PSoC5/CyLib.h"
 227              		.file 6 ".\\i2cLCD.h"
 228              		.file 7 "Generated_Source\\PSoC5/core_cm3.h"
 229              		.file 8 ".\\gnome_lcd.h"
 230              		.file 9 "Generated_Source\\PSoC5/I2C.h"
 231              		.file 10 "c:\\program files (x86)\\cypress\\psoc creator\\3.3\\psoc creator\\import\\gnu\\arm\\4.9