ARM GAS  C:\Users\Javier\AppData\Local\Temp\ccbw4HU9.s 			page 1


   1              		.syntax unified
   2              		.cpu cortex-m3
   3              		.fpu softvfp
   4              		.eabi_attribute 20, 1
   5              		.eabi_attribute 21, 1
   6              		.eabi_attribute 23, 3
   7              		.eabi_attribute 24, 1
   8              		.eabi_attribute 25, 1
   9              		.eabi_attribute 26, 1
  10              		.eabi_attribute 30, 1
  11              		.eabi_attribute 34, 1
  12              		.eabi_attribute 18, 4
  13              		.thumb
  14              		.file	"i2cLCD.c"
  15              		.text
  16              	.Ltext0:
  17              		.cfi_sections	.debug_frame
  18              		.section	.text.i2cTransmission,"ax",%progbits
  19              		.align	2
  20              		.global	i2cTransmission
  21              		.thumb
  22              		.thumb_func
  23              		.type	i2cTransmission, %function
  24              	i2cTransmission:
  25              	.LFB63:
  26              		.file 1 ".\\i2cLCD.c"
   1:.\i2cLCD.c    **** /*
   2:.\i2cLCD.c    ****  * i2cLCD.c
   3:.\i2cLCD.c    ****  *
   4:.\i2cLCD.c    ****  *  Created on: 25/6/2015
   5:.\i2cLCD.c    ****  *      Author: Javier
   6:.\i2cLCD.c    ****  */
   7:.\i2cLCD.c    **** 
   8:.\i2cLCD.c    **** #include <Project.h>
   9:.\i2cLCD.c    **** #include "i2cLCD.h"
  10:.\i2cLCD.c    **** #include <string.h>
  11:.\i2cLCD.c    **** #include "gnome_config.h"
  12:.\i2cLCD.c    **** 
  13:.\i2cLCD.c    **** #if (GNOME_LCD_MODULE_ACTIVE)
  14:.\i2cLCD.c    **** void i2cTransmission(i2cLCD_HandleTypeDef *lcd, uint8_t data) {    
  27              		.loc 1 14 0
  28              		.cfi_startproc
  29              		@ args = 0, pretend = 0, frame = 8
  30              		@ frame_needed = 0, uses_anonymous_args = 0
  31              	.LVL0:
  32 0000 30B5     		push	{r4, r5, lr}
  33              		.cfi_def_cfa_offset 12
  34              		.cfi_offset 4, -12
  35              		.cfi_offset 5, -8
  36              		.cfi_offset 14, -4
  37 0002 83B0     		sub	sp, sp, #12
  38              		.cfi_def_cfa_offset 24
  39 0004 0546     		mov	r5, r0
  40 0006 02AC     		add	r4, sp, #8
  41 0008 04F8011D 		strb	r1, [r4, #-1]!
  15:.\i2cLCD.c    ****     I2C_MasterClearStatus(); /* Clear any previous status */ 
  42              		.loc 1 15 0
ARM GAS  C:\Users\Javier\AppData\Local\Temp\ccbw4HU9.s 			page 2


  43 000c FFF7FEFF 		bl	I2C_MasterClearStatus
  44              	.LVL1:
  16:.\i2cLCD.c    ****     I2C_MasterWriteBuf(lcd->devAddress, (uint8 *) &data, 1u, I2C_MODE_COMPLETE_XFER); 
  45              		.loc 1 16 0
  46 0010 2878     		ldrb	r0, [r5]	@ zero_extendqisi2
  47 0012 2146     		mov	r1, r4
  48 0014 0122     		movs	r2, #1
  49 0016 0023     		movs	r3, #0
  50 0018 FFF7FEFF 		bl	I2C_MasterWriteBuf
  51              	.LVL2:
  52              	.L2:
  17:.\i2cLCD.c    ****     for(;;) {    
  18:.\i2cLCD.c    ****         if(0u != (I2C_MasterStatus() & I2C_MSTAT_WR_CMPLT))    
  53              		.loc 1 18 0
  54 001c FFF7FEFF 		bl	I2C_MasterStatus
  55              	.LVL3:
  56 0020 10F0020F 		tst	r0, #2
  57 0024 FAD0     		beq	.L2
  19:.\i2cLCD.c    ****         {              
  20:.\i2cLCD.c    ****             //Should go to error handler function  
  21:.\i2cLCD.c    ****             break;    
  22:.\i2cLCD.c    ****         } 
  23:.\i2cLCD.c    ****     }
  24:.\i2cLCD.c    **** }
  58              		.loc 1 24 0
  59 0026 03B0     		add	sp, sp, #12
  60              		.cfi_def_cfa_offset 12
  61              		@ sp needed
  62 0028 30BD     		pop	{r4, r5, pc}
  63              		.cfi_endproc
  64              	.LFE63:
  65              		.size	i2cTransmission, .-i2cTransmission
  66 002a 00BF     		.section	.text.send4bitCommand,"ax",%progbits
  67              		.align	2
  68              		.global	send4bitCommand
  69              		.thumb
  70              		.thumb_func
  71              		.type	send4bitCommand, %function
  72              	send4bitCommand:
  73              	.LFB64:
  25:.\i2cLCD.c    **** 
  26:.\i2cLCD.c    **** 
  27:.\i2cLCD.c    **** void send4bitCommand(i2cLCD_HandleTypeDef *lcd, uint8_t data) {
  74              		.loc 1 27 0
  75              		.cfi_startproc
  76              		@ args = 0, pretend = 0, frame = 0
  77              		@ frame_needed = 0, uses_anonymous_args = 0
  78              	.LVL4:
  79 0000 38B5     		push	{r3, r4, r5, lr}
  80              		.cfi_def_cfa_offset 16
  81              		.cfi_offset 3, -16
  82              		.cfi_offset 4, -12
  83              		.cfi_offset 5, -8
  84              		.cfi_offset 14, -4
  85 0002 0546     		mov	r5, r0
  28:.\i2cLCD.c    **** 	uint8_t command = data | (lcd->backlight);
  86              		.loc 1 28 0
ARM GAS  C:\Users\Javier\AppData\Local\Temp\ccbw4HU9.s 			page 3


  87 0004 4478     		ldrb	r4, [r0, #1]	@ zero_extendqisi2
  88 0006 0C43     		orrs	r4, r4, r1
  89              	.LVL5:
  29:.\i2cLCD.c    **** 	i2cTransmission(lcd, command);
  90              		.loc 1 29 0
  91 0008 2146     		mov	r1, r4
  92              	.LVL6:
  93 000a FFF7FEFF 		bl	i2cTransmission
  94              	.LVL7:
  30:.\i2cLCD.c    **** 	command = command | En;
  31:.\i2cLCD.c    **** 	i2cTransmission(lcd, command);
  95              		.loc 1 31 0
  96 000e 2846     		mov	r0, r5
  97 0010 44F00401 		orr	r1, r4, #4
  98 0014 FFF7FEFF 		bl	i2cTransmission
  99              	.LVL8:
  32:.\i2cLCD.c    **** 	command = command &~ En;
  33:.\i2cLCD.c    **** 	i2cTransmission(lcd, command);
 100              		.loc 1 33 0
 101 0018 2846     		mov	r0, r5
 102 001a 04F0FB01 		and	r1, r4, #251
 103 001e FFF7FEFF 		bl	i2cTransmission
 104              	.LVL9:
 105 0022 38BD     		pop	{r3, r4, r5, pc}
 106              		.cfi_endproc
 107              	.LFE64:
 108              		.size	send4bitCommand, .-send4bitCommand
 109              		.section	.text.i2cLCD_SendCommand,"ax",%progbits
 110              		.align	2
 111              		.global	i2cLCD_SendCommand
 112              		.thumb
 113              		.thumb_func
 114              		.type	i2cLCD_SendCommand, %function
 115              	i2cLCD_SendCommand:
 116              	.LFB67:
  34:.\i2cLCD.c    **** }
  35:.\i2cLCD.c    **** 
  36:.\i2cLCD.c    **** void set4bitModeLCD(i2cLCD_HandleTypeDef *lcd) {
  37:.\i2cLCD.c    ****     
  38:.\i2cLCD.c    **** 	CyDelay(30);
  39:.\i2cLCD.c    **** 
  40:.\i2cLCD.c    **** 	send4bitCommand(lcd, 0x30);
  41:.\i2cLCD.c    **** 
  42:.\i2cLCD.c    **** 	CyDelay(5);
  43:.\i2cLCD.c    **** 
  44:.\i2cLCD.c    **** 	send4bitCommand(lcd, 0x30);
  45:.\i2cLCD.c    **** 
  46:.\i2cLCD.c    **** 	CyDelay(1);
  47:.\i2cLCD.c    **** 
  48:.\i2cLCD.c    **** 	send4bitCommand(lcd, 0x30);
  49:.\i2cLCD.c    **** 
  50:.\i2cLCD.c    **** 	CyDelay(1);
  51:.\i2cLCD.c    **** 
  52:.\i2cLCD.c    **** 	send4bitCommand(lcd, 0x20);
  53:.\i2cLCD.c    **** 
  54:.\i2cLCD.c    **** 	i2cLCD_SendCommand(lcd, 0x28);
  55:.\i2cLCD.c    **** }
ARM GAS  C:\Users\Javier\AppData\Local\Temp\ccbw4HU9.s 			page 4


  56:.\i2cLCD.c    **** 
  57:.\i2cLCD.c    **** void setDisplayControl(i2cLCD_HandleTypeDef *lcd) {
  58:.\i2cLCD.c    **** 	i2cLCD_SendCommand(lcd, LCD_DISPLAYCONTROL|(lcd->blinkON)|(lcd->cursorON)|(lcd->displayON));
  59:.\i2cLCD.c    **** }
  60:.\i2cLCD.c    **** 
  61:.\i2cLCD.c    **** void i2cLCD_SendCommand(i2cLCD_HandleTypeDef *lcd, uint8_t command) {
 117              		.loc 1 61 0
 118              		.cfi_startproc
 119              		@ args = 0, pretend = 0, frame = 0
 120              		@ frame_needed = 0, uses_anonymous_args = 0
 121              	.LVL10:
 122 0000 38B5     		push	{r3, r4, r5, lr}
 123              		.cfi_def_cfa_offset 16
 124              		.cfi_offset 3, -16
 125              		.cfi_offset 4, -12
 126              		.cfi_offset 5, -8
 127              		.cfi_offset 14, -4
 128 0002 0546     		mov	r5, r0
 129              	.LVL11:
  62:.\i2cLCD.c    **** 
  63:.\i2cLCD.c    **** 	//CyDelay(2);
  64:.\i2cLCD.c    **** 
  65:.\i2cLCD.c    **** 	uint8_t MSB = command & 0xF0;
  66:.\i2cLCD.c    **** 	uint8_t LSB = command << 4;
 130              		.loc 1 66 0
 131 0004 0C01     		lsls	r4, r1, #4
 132 0006 E4B2     		uxtb	r4, r4
 133              	.LVL12:
  67:.\i2cLCD.c    **** 
  68:.\i2cLCD.c    **** 	// Send MSB
  69:.\i2cLCD.c    **** 	send4bitCommand(lcd, MSB);
 134              		.loc 1 69 0
 135 0008 01F0F001 		and	r1, r1, #240
 136              	.LVL13:
 137 000c FFF7FEFF 		bl	send4bitCommand
 138              	.LVL14:
  70:.\i2cLCD.c    **** 
  71:.\i2cLCD.c    **** 	// Wait until the LCD is ready to receive another command
  72:.\i2cLCD.c    **** 	//CyDelay(2);
  73:.\i2cLCD.c    **** 
  74:.\i2cLCD.c    **** 	// Send LSB
  75:.\i2cLCD.c    **** 	send4bitCommand(lcd, LSB);
 139              		.loc 1 75 0
 140 0010 2846     		mov	r0, r5
 141 0012 2146     		mov	r1, r4
 142 0014 FFF7FEFF 		bl	send4bitCommand
 143              	.LVL15:
 144 0018 38BD     		pop	{r3, r4, r5, pc}
 145              		.cfi_endproc
 146              	.LFE67:
 147              		.size	i2cLCD_SendCommand, .-i2cLCD_SendCommand
 148 001a 00BF     		.section	.text.set4bitModeLCD,"ax",%progbits
 149              		.align	2
 150              		.global	set4bitModeLCD
 151              		.thumb
 152              		.thumb_func
 153              		.type	set4bitModeLCD, %function
ARM GAS  C:\Users\Javier\AppData\Local\Temp\ccbw4HU9.s 			page 5


 154              	set4bitModeLCD:
 155              	.LFB65:
  36:.\i2cLCD.c    ****     
 156              		.loc 1 36 0
 157              		.cfi_startproc
 158              		@ args = 0, pretend = 0, frame = 0
 159              		@ frame_needed = 0, uses_anonymous_args = 0
 160              	.LVL16:
 161 0000 10B5     		push	{r4, lr}
 162              		.cfi_def_cfa_offset 8
 163              		.cfi_offset 4, -8
 164              		.cfi_offset 14, -4
 165 0002 0446     		mov	r4, r0
  38:.\i2cLCD.c    **** 
 166              		.loc 1 38 0
 167 0004 1E20     		movs	r0, #30
 168              	.LVL17:
 169 0006 FFF7FEFF 		bl	CyDelay
 170              	.LVL18:
  40:.\i2cLCD.c    **** 
 171              		.loc 1 40 0
 172 000a 2046     		mov	r0, r4
 173 000c 3021     		movs	r1, #48
 174 000e FFF7FEFF 		bl	send4bitCommand
 175              	.LVL19:
  42:.\i2cLCD.c    **** 
 176              		.loc 1 42 0
 177 0012 0520     		movs	r0, #5
 178 0014 FFF7FEFF 		bl	CyDelay
 179              	.LVL20:
  44:.\i2cLCD.c    **** 
 180              		.loc 1 44 0
 181 0018 2046     		mov	r0, r4
 182 001a 3021     		movs	r1, #48
 183 001c FFF7FEFF 		bl	send4bitCommand
 184              	.LVL21:
  46:.\i2cLCD.c    **** 
 185              		.loc 1 46 0
 186 0020 0120     		movs	r0, #1
 187 0022 FFF7FEFF 		bl	CyDelay
 188              	.LVL22:
  48:.\i2cLCD.c    **** 
 189              		.loc 1 48 0
 190 0026 2046     		mov	r0, r4
 191 0028 3021     		movs	r1, #48
 192 002a FFF7FEFF 		bl	send4bitCommand
 193              	.LVL23:
  50:.\i2cLCD.c    **** 
 194              		.loc 1 50 0
 195 002e 0120     		movs	r0, #1
 196 0030 FFF7FEFF 		bl	CyDelay
 197              	.LVL24:
  52:.\i2cLCD.c    **** 
 198              		.loc 1 52 0
 199 0034 2046     		mov	r0, r4
 200 0036 2021     		movs	r1, #32
 201 0038 FFF7FEFF 		bl	send4bitCommand
ARM GAS  C:\Users\Javier\AppData\Local\Temp\ccbw4HU9.s 			page 6


 202              	.LVL25:
  54:.\i2cLCD.c    **** }
 203              		.loc 1 54 0
 204 003c 2046     		mov	r0, r4
 205 003e 2821     		movs	r1, #40
 206 0040 FFF7FEFF 		bl	i2cLCD_SendCommand
 207              	.LVL26:
 208 0044 10BD     		pop	{r4, pc}
 209              		.cfi_endproc
 210              	.LFE65:
 211              		.size	set4bitModeLCD, .-set4bitModeLCD
 212 0046 00BF     		.section	.text.setDisplayControl,"ax",%progbits
 213              		.align	2
 214              		.global	setDisplayControl
 215              		.thumb
 216              		.thumb_func
 217              		.type	setDisplayControl, %function
 218              	setDisplayControl:
 219              	.LFB66:
  57:.\i2cLCD.c    **** 	i2cLCD_SendCommand(lcd, LCD_DISPLAYCONTROL|(lcd->blinkON)|(lcd->cursorON)|(lcd->displayON));
 220              		.loc 1 57 0
 221              		.cfi_startproc
 222              		@ args = 0, pretend = 0, frame = 0
 223              		@ frame_needed = 0, uses_anonymous_args = 0
 224              	.LVL27:
 225 0000 08B5     		push	{r3, lr}
 226              		.cfi_def_cfa_offset 8
 227              		.cfi_offset 3, -8
 228              		.cfi_offset 14, -4
  58:.\i2cLCD.c    **** }
 229              		.loc 1 58 0
 230 0002 0179     		ldrb	r1, [r0, #4]	@ zero_extendqisi2
 231 0004 8378     		ldrb	r3, [r0, #2]	@ zero_extendqisi2
 232 0006 C278     		ldrb	r2, [r0, #3]	@ zero_extendqisi2
 233 0008 1943     		orrs	r1, r1, r3
 234 000a 1143     		orrs	r1, r1, r2
 235 000c 41F00801 		orr	r1, r1, #8
 236 0010 FFF7FEFF 		bl	i2cLCD_SendCommand
 237              	.LVL28:
 238 0014 08BD     		pop	{r3, pc}
 239              		.cfi_endproc
 240              	.LFE66:
 241              		.size	setDisplayControl, .-setDisplayControl
 242 0016 00BF     		.section	.text.i2cLCD_WriteRAM,"ax",%progbits
 243              		.align	2
 244              		.global	i2cLCD_WriteRAM
 245              		.thumb
 246              		.thumb_func
 247              		.type	i2cLCD_WriteRAM, %function
 248              	i2cLCD_WriteRAM:
 249              	.LFB69:
  76:.\i2cLCD.c    **** }
  77:.\i2cLCD.c    **** 
  78:.\i2cLCD.c    **** void i2cLCD_Init(i2cLCD_HandleTypeDef *lcd, uint16_t address, uint8_t backlight) {
  79:.\i2cLCD.c    **** 	lcd->devAddress = address;
  80:.\i2cLCD.c    **** 
  81:.\i2cLCD.c    **** 	lcd->backlight = backlight;
ARM GAS  C:\Users\Javier\AppData\Local\Temp\ccbw4HU9.s 			page 7


  82:.\i2cLCD.c    **** 	lcd->cursorON = LCD_CURSOROFF;
  83:.\i2cLCD.c    **** 	lcd->blinkON = LCD_BLINKOFF;
  84:.\i2cLCD.c    **** 	lcd->displayON = LCD_DISPLAYON;
  85:.\i2cLCD.c    **** 	lcd->numberOfCustomChars = 0;
  86:.\i2cLCD.c    **** 
  87:.\i2cLCD.c    **** 	set4bitModeLCD(lcd);
  88:.\i2cLCD.c    **** 	setDisplayControl(lcd);
  89:.\i2cLCD.c    **** 	i2cLCD_ClearDisplay(lcd);
  90:.\i2cLCD.c    **** }
  91:.\i2cLCD.c    **** 
  92:.\i2cLCD.c    **** void i2cLCD_WriteRAM(i2cLCD_HandleTypeDef *lcd, uint8_t character) {
 250              		.loc 1 92 0
 251              		.cfi_startproc
 252              		@ args = 0, pretend = 0, frame = 0
 253              		@ frame_needed = 0, uses_anonymous_args = 0
 254              	.LVL29:
 255 0000 38B5     		push	{r3, r4, r5, lr}
 256              		.cfi_def_cfa_offset 16
 257              		.cfi_offset 3, -16
 258              		.cfi_offset 4, -12
 259              		.cfi_offset 5, -8
 260              		.cfi_offset 14, -4
 261 0002 0546     		mov	r5, r0
 262 0004 0C46     		mov	r4, r1
  93:.\i2cLCD.c    **** 	CyDelay(2);//waitForLCDAvailability();
 263              		.loc 1 93 0
 264 0006 0220     		movs	r0, #2
 265              	.LVL30:
 266 0008 FFF7FEFF 		bl	CyDelay
 267              	.LVL31:
  94:.\i2cLCD.c    **** 
  95:.\i2cLCD.c    **** 	uint8_t MSB = character & 0xF0;
 268              		.loc 1 95 0
 269 000c 04F0F001 		and	r1, r4, #240
 270              	.LVL32:
  96:.\i2cLCD.c    **** 	uint8_t LSB = character << 4;
 271              		.loc 1 96 0
 272 0010 2401     		lsls	r4, r4, #4
 273 0012 E4B2     		uxtb	r4, r4
 274              	.LVL33:
  97:.\i2cLCD.c    **** 
  98:.\i2cLCD.c    **** 	// Send MSB
  99:.\i2cLCD.c    **** 	MSB = MSB | Rs;
 100:.\i2cLCD.c    **** 	send4bitCommand(lcd, MSB);
 275              		.loc 1 100 0
 276 0014 2846     		mov	r0, r5
 277 0016 41F00101 		orr	r1, r1, #1
 278              	.LVL34:
 279 001a FFF7FEFF 		bl	send4bitCommand
 280              	.LVL35:
 101:.\i2cLCD.c    **** 
 102:.\i2cLCD.c    **** 	// Wait until the LCD is ready to receive another command
 103:.\i2cLCD.c    **** 	//CyDelay(2);
 104:.\i2cLCD.c    **** 
 105:.\i2cLCD.c    **** 	// Send LSB
 106:.\i2cLCD.c    **** 	LSB = LSB | Rs;
 107:.\i2cLCD.c    **** 	send4bitCommand(lcd, LSB);
ARM GAS  C:\Users\Javier\AppData\Local\Temp\ccbw4HU9.s 			page 8


 281              		.loc 1 107 0
 282 001e 2846     		mov	r0, r5
 283 0020 44F00101 		orr	r1, r4, #1
 284 0024 FFF7FEFF 		bl	send4bitCommand
 285              	.LVL36:
 286 0028 38BD     		pop	{r3, r4, r5, pc}
 287              		.cfi_endproc
 288              	.LFE69:
 289              		.size	i2cLCD_WriteRAM, .-i2cLCD_WriteRAM
 290 002a 00BF     		.section	.text.i2cLCD_Print,"ax",%progbits
 291              		.align	2
 292              		.global	i2cLCD_Print
 293              		.thumb
 294              		.thumb_func
 295              		.type	i2cLCD_Print, %function
 296              	i2cLCD_Print:
 297              	.LFB70:
 108:.\i2cLCD.c    **** }
 109:.\i2cLCD.c    **** 
 110:.\i2cLCD.c    **** void i2cLCD_Print(i2cLCD_HandleTypeDef *lcd, char string[]) {
 298              		.loc 1 110 0
 299              		.cfi_startproc
 300              		@ args = 0, pretend = 0, frame = 0
 301              		@ frame_needed = 0, uses_anonymous_args = 0
 302              	.LVL37:
 303 0000 F8B5     		push	{r3, r4, r5, r6, r7, lr}
 304              		.cfi_def_cfa_offset 24
 305              		.cfi_offset 3, -24
 306              		.cfi_offset 4, -20
 307              		.cfi_offset 5, -16
 308              		.cfi_offset 6, -12
 309              		.cfi_offset 7, -8
 310              		.cfi_offset 14, -4
 311 0002 0746     		mov	r7, r0
 312 0004 0E46     		mov	r6, r1
 111:.\i2cLCD.c    **** 	uint8_t length = strlen(string);
 313              		.loc 1 111 0
 314 0006 0846     		mov	r0, r1
 315              	.LVL38:
 316 0008 FFF7FEFF 		bl	strlen
 317              	.LVL39:
 318 000c C5B2     		uxtb	r5, r0
 319              	.LVL40:
 112:.\i2cLCD.c    **** 
 113:.\i2cLCD.c    **** 	uint8_t i;
 114:.\i2cLCD.c    **** 	for (i = 0; i < length; i++) {
 320              		.loc 1 114 0
 321 000e 0024     		movs	r4, #0
 322 0010 05E0     		b	.L15
 323              	.LVL41:
 324              	.L16:
 115:.\i2cLCD.c    **** 		i2cLCD_WriteRAM(lcd, string[i]);
 325              		.loc 1 115 0 discriminator 3
 326 0012 3846     		mov	r0, r7
 327 0014 315D     		ldrb	r1, [r6, r4]	@ zero_extendqisi2
 328 0016 FFF7FEFF 		bl	i2cLCD_WriteRAM
 329              	.LVL42:
ARM GAS  C:\Users\Javier\AppData\Local\Temp\ccbw4HU9.s 			page 9


 114:.\i2cLCD.c    **** 		i2cLCD_WriteRAM(lcd, string[i]);
 330              		.loc 1 114 0 discriminator 3
 331 001a 0134     		adds	r4, r4, #1
 332              	.LVL43:
 333 001c E4B2     		uxtb	r4, r4
 334              	.LVL44:
 335              	.L15:
 114:.\i2cLCD.c    **** 		i2cLCD_WriteRAM(lcd, string[i]);
 336              		.loc 1 114 0 is_stmt 0 discriminator 1
 337 001e AC42     		cmp	r4, r5
 338 0020 F7D3     		bcc	.L16
 116:.\i2cLCD.c    **** 	}
 117:.\i2cLCD.c    **** }
 339              		.loc 1 117 0 is_stmt 1
 340 0022 F8BD     		pop	{r3, r4, r5, r6, r7, pc}
 341              		.cfi_endproc
 342              	.LFE70:
 343              		.size	i2cLCD_Print, .-i2cLCD_Print
 344              		.section	.text.i2cLCD_DisplayCustomChar,"ax",%progbits
 345              		.align	2
 346              		.global	i2cLCD_DisplayCustomChar
 347              		.thumb
 348              		.thumb_func
 349              		.type	i2cLCD_DisplayCustomChar, %function
 350              	i2cLCD_DisplayCustomChar:
 351              	.LFB72:
 118:.\i2cLCD.c    **** 
 119:.\i2cLCD.c    **** void i2cLCD_CreateCustomChar(i2cLCD_HandleTypeDef *lcd, uint8_t array[], char *identifier) {
 120:.\i2cLCD.c    **** 	i2cLCD_SendCommand(lcd, LCD_SETCGRAMADDR|(lcd->numberOfCustomChars << 3));
 121:.\i2cLCD.c    **** 
 122:.\i2cLCD.c    **** 	//Create a copy of the identifier
 123:.\i2cLCD.c    **** 	strcpy(lcd->customCharIdentifiers[lcd->numberOfCustomChars], identifier);
 124:.\i2cLCD.c    **** 
 125:.\i2cLCD.c    **** 	uint8_t i = 0;
 126:.\i2cLCD.c    **** 	for (i = 0; i<8; i++) {
 127:.\i2cLCD.c    **** 		i2cLCD_WriteRAM(lcd, array[i]);
 128:.\i2cLCD.c    **** 	}
 129:.\i2cLCD.c    **** 	i2cLCD_SetPosition(lcd,0,0);
 130:.\i2cLCD.c    **** 	//increase by one the number of custom char's
 131:.\i2cLCD.c    **** 	lcd->numberOfCustomChars++;
 132:.\i2cLCD.c    **** }
 133:.\i2cLCD.c    **** 
 134:.\i2cLCD.c    **** void i2cLCD_DisplayCustomChar(i2cLCD_HandleTypeDef *lcd, char *identifier) {
 352              		.loc 1 134 0
 353              		.cfi_startproc
 354              		@ args = 0, pretend = 0, frame = 0
 355              		@ frame_needed = 0, uses_anonymous_args = 0
 356              	.LVL45:
 357 0000 70B5     		push	{r4, r5, r6, lr}
 358              		.cfi_def_cfa_offset 16
 359              		.cfi_offset 4, -16
 360              		.cfi_offset 5, -12
 361              		.cfi_offset 6, -8
 362              		.cfi_offset 14, -4
 363 0002 0546     		mov	r5, r0
 364 0004 0E46     		mov	r6, r1
 365              	.LVL46:
ARM GAS  C:\Users\Javier\AppData\Local\Temp\ccbw4HU9.s 			page 10


 135:.\i2cLCD.c    **** 	uint8_t i = 0;
 136:.\i2cLCD.c    **** 	for (i = 0; i<lcd->numberOfCustomChars; i++) {
 366              		.loc 1 136 0
 367 0006 0024     		movs	r4, #0
 368 0008 0CE0     		b	.L19
 369              	.LVL47:
 370              	.L21:
 137:.\i2cLCD.c    **** 		if (strcmp(identifier, lcd->customCharIdentifiers[i])==0) {
 371              		.loc 1 137 0
 372 000a 05EB0411 		add	r1, r5, r4, lsl #4
 373 000e 3046     		mov	r0, r6
 374 0010 0631     		adds	r1, r1, #6
 375 0012 FFF7FEFF 		bl	strcmp
 376              	.LVL48:
 377 0016 18B9     		cbnz	r0, .L20
 138:.\i2cLCD.c    **** 			i2cLCD_WriteRAM(lcd, i);
 378              		.loc 1 138 0
 379 0018 2846     		mov	r0, r5
 380 001a 2146     		mov	r1, r4
 381 001c FFF7FEFF 		bl	i2cLCD_WriteRAM
 382              	.LVL49:
 383              	.L20:
 136:.\i2cLCD.c    **** 		if (strcmp(identifier, lcd->customCharIdentifiers[i])==0) {
 384              		.loc 1 136 0 discriminator 2
 385 0020 0134     		adds	r4, r4, #1
 386              	.LVL50:
 387 0022 E4B2     		uxtb	r4, r4
 388              	.LVL51:
 389              	.L19:
 136:.\i2cLCD.c    **** 		if (strcmp(identifier, lcd->customCharIdentifiers[i])==0) {
 390              		.loc 1 136 0 is_stmt 0 discriminator 1
 391 0024 6B79     		ldrb	r3, [r5, #5]	@ zero_extendqisi2
 392 0026 A342     		cmp	r3, r4
 393 0028 EFD8     		bhi	.L21
 139:.\i2cLCD.c    **** 		}
 140:.\i2cLCD.c    **** 	}
 141:.\i2cLCD.c    **** }
 394              		.loc 1 141 0 is_stmt 1
 395 002a 70BD     		pop	{r4, r5, r6, pc}
 396              		.cfi_endproc
 397              	.LFE72:
 398              		.size	i2cLCD_DisplayCustomChar, .-i2cLCD_DisplayCustomChar
 399              		.section	.text.i2cLCD_SetPosition,"ax",%progbits
 400              		.align	2
 401              		.global	i2cLCD_SetPosition
 402              		.thumb
 403              		.thumb_func
 404              		.type	i2cLCD_SetPosition, %function
 405              	i2cLCD_SetPosition:
 406              	.LFB73:
 142:.\i2cLCD.c    **** 
 143:.\i2cLCD.c    **** void i2cLCD_SetPosition(i2cLCD_HandleTypeDef *lcd, uint8_t row, uint8_t column) {
 407              		.loc 1 143 0
 408              		.cfi_startproc
 409              		@ args = 0, pretend = 0, frame = 0
 410              		@ frame_needed = 0, uses_anonymous_args = 0
 411              	.LVL52:
ARM GAS  C:\Users\Javier\AppData\Local\Temp\ccbw4HU9.s 			page 11


 412 0000 08B5     		push	{r3, lr}
 413              		.cfi_def_cfa_offset 8
 414              		.cfi_offset 3, -8
 415              		.cfi_offset 14, -4
 144:.\i2cLCD.c    **** 	i2cLCD_SendCommand(lcd, LCD_SETDDRAMADDR|(row*0x40+column));
 416              		.loc 1 144 0
 417 0002 02EB8111 		add	r1, r2, r1, lsl #6
 418              	.LVL53:
 419 0006 61F07F01 		orn	r1, r1, #127
 420 000a C9B2     		uxtb	r1, r1
 421 000c FFF7FEFF 		bl	i2cLCD_SendCommand
 422              	.LVL54:
 423 0010 08BD     		pop	{r3, pc}
 424              		.cfi_endproc
 425              	.LFE73:
 426              		.size	i2cLCD_SetPosition, .-i2cLCD_SetPosition
 427 0012 00BF     		.section	.text.i2cLCD_CreateCustomChar,"ax",%progbits
 428              		.align	2
 429              		.global	i2cLCD_CreateCustomChar
 430              		.thumb
 431              		.thumb_func
 432              		.type	i2cLCD_CreateCustomChar, %function
 433              	i2cLCD_CreateCustomChar:
 434              	.LFB71:
 119:.\i2cLCD.c    **** 	i2cLCD_SendCommand(lcd, LCD_SETCGRAMADDR|(lcd->numberOfCustomChars << 3));
 435              		.loc 1 119 0
 436              		.cfi_startproc
 437              		@ args = 0, pretend = 0, frame = 0
 438              		@ frame_needed = 0, uses_anonymous_args = 0
 439              	.LVL55:
 440 0000 70B5     		push	{r4, r5, r6, lr}
 441              		.cfi_def_cfa_offset 16
 442              		.cfi_offset 4, -16
 443              		.cfi_offset 5, -12
 444              		.cfi_offset 6, -8
 445              		.cfi_offset 14, -4
 446 0002 0546     		mov	r5, r0
 447 0004 0E46     		mov	r6, r1
 448 0006 1446     		mov	r4, r2
 120:.\i2cLCD.c    **** 
 449              		.loc 1 120 0
 450 0008 4179     		ldrb	r1, [r0, #5]	@ zero_extendqisi2
 451              	.LVL56:
 452 000a C900     		lsls	r1, r1, #3
 453 000c 41F04001 		orr	r1, r1, #64
 454 0010 01F0F801 		and	r1, r1, #248
 455 0014 FFF7FEFF 		bl	i2cLCD_SendCommand
 456              	.LVL57:
 123:.\i2cLCD.c    **** 
 457              		.loc 1 123 0
 458 0018 6879     		ldrb	r0, [r5, #5]	@ zero_extendqisi2
 459 001a 05EB0010 		add	r0, r5, r0, lsl #4
 460 001e 0630     		adds	r0, r0, #6
 461 0020 2146     		mov	r1, r4
 462 0022 FFF7FEFF 		bl	strcpy
 463              	.LVL58:
 126:.\i2cLCD.c    **** 		i2cLCD_WriteRAM(lcd, array[i]);
ARM GAS  C:\Users\Javier\AppData\Local\Temp\ccbw4HU9.s 			page 12


 464              		.loc 1 126 0
 465 0026 0024     		movs	r4, #0
 466              	.LVL59:
 467 0028 05E0     		b	.L26
 468              	.LVL60:
 469              	.L27:
 127:.\i2cLCD.c    **** 	}
 470              		.loc 1 127 0 discriminator 3
 471 002a 2846     		mov	r0, r5
 472 002c 315D     		ldrb	r1, [r6, r4]	@ zero_extendqisi2
 473 002e FFF7FEFF 		bl	i2cLCD_WriteRAM
 474              	.LVL61:
 126:.\i2cLCD.c    **** 		i2cLCD_WriteRAM(lcd, array[i]);
 475              		.loc 1 126 0 discriminator 3
 476 0032 0134     		adds	r4, r4, #1
 477              	.LVL62:
 478 0034 E4B2     		uxtb	r4, r4
 479              	.LVL63:
 480              	.L26:
 126:.\i2cLCD.c    **** 		i2cLCD_WriteRAM(lcd, array[i]);
 481              		.loc 1 126 0 is_stmt 0 discriminator 1
 482 0036 072C     		cmp	r4, #7
 483 0038 F7D9     		bls	.L27
 129:.\i2cLCD.c    **** 	//increase by one the number of custom char's
 484              		.loc 1 129 0 is_stmt 1
 485 003a 2846     		mov	r0, r5
 486 003c 0021     		movs	r1, #0
 487 003e 0A46     		mov	r2, r1
 488 0040 FFF7FEFF 		bl	i2cLCD_SetPosition
 489              	.LVL64:
 131:.\i2cLCD.c    **** }
 490              		.loc 1 131 0
 491 0044 6B79     		ldrb	r3, [r5, #5]	@ zero_extendqisi2
 492 0046 0133     		adds	r3, r3, #1
 493 0048 6B71     		strb	r3, [r5, #5]
 494 004a 70BD     		pop	{r4, r5, r6, pc}
 495              		.cfi_endproc
 496              	.LFE71:
 497              		.size	i2cLCD_CreateCustomChar, .-i2cLCD_CreateCustomChar
 498              		.section	.text.i2cLCD_ClearDisplay,"ax",%progbits
 499              		.align	2
 500              		.global	i2cLCD_ClearDisplay
 501              		.thumb
 502              		.thumb_func
 503              		.type	i2cLCD_ClearDisplay, %function
 504              	i2cLCD_ClearDisplay:
 505              	.LFB74:
 145:.\i2cLCD.c    **** }
 146:.\i2cLCD.c    **** 
 147:.\i2cLCD.c    **** void i2cLCD_ClearDisplay(i2cLCD_HandleTypeDef *lcd) {
 506              		.loc 1 147 0
 507              		.cfi_startproc
 508              		@ args = 0, pretend = 0, frame = 0
 509              		@ frame_needed = 0, uses_anonymous_args = 0
 510              	.LVL65:
 511 0000 08B5     		push	{r3, lr}
 512              		.cfi_def_cfa_offset 8
ARM GAS  C:\Users\Javier\AppData\Local\Temp\ccbw4HU9.s 			page 13


 513              		.cfi_offset 3, -8
 514              		.cfi_offset 14, -4
 148:.\i2cLCD.c    **** 	i2cLCD_SendCommand(lcd, LCD_CLEARDISPLAY);
 515              		.loc 1 148 0
 516 0002 0121     		movs	r1, #1
 517 0004 FFF7FEFF 		bl	i2cLCD_SendCommand
 518              	.LVL66:
 519 0008 08BD     		pop	{r3, pc}
 520              		.cfi_endproc
 521              	.LFE74:
 522              		.size	i2cLCD_ClearDisplay, .-i2cLCD_ClearDisplay
 523 000a 00BF     		.section	.text.i2cLCD_Init,"ax",%progbits
 524              		.align	2
 525              		.global	i2cLCD_Init
 526              		.thumb
 527              		.thumb_func
 528              		.type	i2cLCD_Init, %function
 529              	i2cLCD_Init:
 530              	.LFB68:
  78:.\i2cLCD.c    **** 	lcd->devAddress = address;
 531              		.loc 1 78 0
 532              		.cfi_startproc
 533              		@ args = 0, pretend = 0, frame = 0
 534              		@ frame_needed = 0, uses_anonymous_args = 0
 535              	.LVL67:
 536 0000 10B5     		push	{r4, lr}
 537              		.cfi_def_cfa_offset 8
 538              		.cfi_offset 4, -8
 539              		.cfi_offset 14, -4
 540 0002 0446     		mov	r4, r0
  79:.\i2cLCD.c    **** 
 541              		.loc 1 79 0
 542 0004 0170     		strb	r1, [r0]
  81:.\i2cLCD.c    **** 	lcd->cursorON = LCD_CURSOROFF;
 543              		.loc 1 81 0
 544 0006 4270     		strb	r2, [r0, #1]
  82:.\i2cLCD.c    **** 	lcd->blinkON = LCD_BLINKOFF;
 545              		.loc 1 82 0
 546 0008 0023     		movs	r3, #0
 547 000a 8370     		strb	r3, [r0, #2]
  83:.\i2cLCD.c    **** 	lcd->displayON = LCD_DISPLAYON;
 548              		.loc 1 83 0
 549 000c 0371     		strb	r3, [r0, #4]
  84:.\i2cLCD.c    **** 	lcd->numberOfCustomChars = 0;
 550              		.loc 1 84 0
 551 000e 0422     		movs	r2, #4
 552              	.LVL68:
 553 0010 C270     		strb	r2, [r0, #3]
  85:.\i2cLCD.c    **** 
 554              		.loc 1 85 0
 555 0012 4371     		strb	r3, [r0, #5]
  87:.\i2cLCD.c    **** 	setDisplayControl(lcd);
 556              		.loc 1 87 0
 557 0014 FFF7FEFF 		bl	set4bitModeLCD
 558              	.LVL69:
  88:.\i2cLCD.c    **** 	i2cLCD_ClearDisplay(lcd);
 559              		.loc 1 88 0
ARM GAS  C:\Users\Javier\AppData\Local\Temp\ccbw4HU9.s 			page 14


 560 0018 2046     		mov	r0, r4
 561 001a FFF7FEFF 		bl	setDisplayControl
 562              	.LVL70:
  89:.\i2cLCD.c    **** }
 563              		.loc 1 89 0
 564 001e 2046     		mov	r0, r4
 565 0020 FFF7FEFF 		bl	i2cLCD_ClearDisplay
 566              	.LVL71:
 567 0024 10BD     		pop	{r4, pc}
 568              		.cfi_endproc
 569              	.LFE68:
 570              		.size	i2cLCD_Init, .-i2cLCD_Init
 571 0026 00BF     		.section	.text.i2cLCD_SetCursor,"ax",%progbits
 572              		.align	2
 573              		.global	i2cLCD_SetCursor
 574              		.thumb
 575              		.thumb_func
 576              		.type	i2cLCD_SetCursor, %function
 577              	i2cLCD_SetCursor:
 578              	.LFB75:
 149:.\i2cLCD.c    **** }
 150:.\i2cLCD.c    **** 
 151:.\i2cLCD.c    **** void i2cLCD_SetCursor(i2cLCD_HandleTypeDef *lcd, uint8_t cursor) {
 579              		.loc 1 151 0
 580              		.cfi_startproc
 581              		@ args = 0, pretend = 0, frame = 0
 582              		@ frame_needed = 0, uses_anonymous_args = 0
 583              	.LVL72:
 584 0000 08B5     		push	{r3, lr}
 585              		.cfi_def_cfa_offset 8
 586              		.cfi_offset 3, -8
 587              		.cfi_offset 14, -4
 152:.\i2cLCD.c    **** 	lcd->cursorON = cursor;
 588              		.loc 1 152 0
 589 0002 8170     		strb	r1, [r0, #2]
 153:.\i2cLCD.c    **** 	setDisplayControl(lcd);
 590              		.loc 1 153 0
 591 0004 FFF7FEFF 		bl	setDisplayControl
 592              	.LVL73:
 593 0008 08BD     		pop	{r3, pc}
 594              		.cfi_endproc
 595              	.LFE75:
 596              		.size	i2cLCD_SetCursor, .-i2cLCD_SetCursor
 597 000a 00BF     		.section	.text.i2cLCD_SetDisplay,"ax",%progbits
 598              		.align	2
 599              		.global	i2cLCD_SetDisplay
 600              		.thumb
 601              		.thumb_func
 602              		.type	i2cLCD_SetDisplay, %function
 603              	i2cLCD_SetDisplay:
 604              	.LFB76:
 154:.\i2cLCD.c    **** }
 155:.\i2cLCD.c    **** 
 156:.\i2cLCD.c    **** void i2cLCD_SetDisplay(i2cLCD_HandleTypeDef *lcd, uint8_t display) {
 605              		.loc 1 156 0
 606              		.cfi_startproc
 607              		@ args = 0, pretend = 0, frame = 0
ARM GAS  C:\Users\Javier\AppData\Local\Temp\ccbw4HU9.s 			page 15


 608              		@ frame_needed = 0, uses_anonymous_args = 0
 609              	.LVL74:
 610 0000 08B5     		push	{r3, lr}
 611              		.cfi_def_cfa_offset 8
 612              		.cfi_offset 3, -8
 613              		.cfi_offset 14, -4
 157:.\i2cLCD.c    **** 	lcd->displayON = display;
 614              		.loc 1 157 0
 615 0002 C170     		strb	r1, [r0, #3]
 158:.\i2cLCD.c    **** 	setDisplayControl(lcd);
 616              		.loc 1 158 0
 617 0004 FFF7FEFF 		bl	setDisplayControl
 618              	.LVL75:
 619 0008 08BD     		pop	{r3, pc}
 620              		.cfi_endproc
 621              	.LFE76:
 622              		.size	i2cLCD_SetDisplay, .-i2cLCD_SetDisplay
 623 000a 00BF     		.section	.text.i2cLCD_SetBlink,"ax",%progbits
 624              		.align	2
 625              		.global	i2cLCD_SetBlink
 626              		.thumb
 627              		.thumb_func
 628              		.type	i2cLCD_SetBlink, %function
 629              	i2cLCD_SetBlink:
 630              	.LFB77:
 159:.\i2cLCD.c    **** }
 160:.\i2cLCD.c    **** 
 161:.\i2cLCD.c    **** void i2cLCD_SetBlink(i2cLCD_HandleTypeDef *lcd, uint8_t blink) {
 631              		.loc 1 161 0
 632              		.cfi_startproc
 633              		@ args = 0, pretend = 0, frame = 0
 634              		@ frame_needed = 0, uses_anonymous_args = 0
 635              	.LVL76:
 636 0000 08B5     		push	{r3, lr}
 637              		.cfi_def_cfa_offset 8
 638              		.cfi_offset 3, -8
 639              		.cfi_offset 14, -4
 162:.\i2cLCD.c    **** 	lcd->blinkON = blink;
 640              		.loc 1 162 0
 641 0002 0171     		strb	r1, [r0, #4]
 163:.\i2cLCD.c    **** 	setDisplayControl(lcd);
 642              		.loc 1 163 0
 643 0004 FFF7FEFF 		bl	setDisplayControl
 644              	.LVL77:
 645 0008 08BD     		pop	{r3, pc}
 646              		.cfi_endproc
 647              	.LFE77:
 648              		.size	i2cLCD_SetBlink, .-i2cLCD_SetBlink
 649 000a 00BF     		.text
 650              	.Letext0:
 651              		.file 2 "c:\\program files (x86)\\cypress\\psoc creator\\3.3\\psoc creator\\import\\gnu\\arm\\4.9.
 652              		.file 3 "c:\\program files (x86)\\cypress\\psoc creator\\3.3\\psoc creator\\import\\gnu\\arm\\4.9.
 653              		.file 4 "Generated_Source\\PSoC5/cytypes.h"
 654              		.file 5 "c:\\program files (x86)\\cypress\\psoc creator\\3.3\\psoc creator\\import\\gnu\\arm\\4.9.
 655              		.file 6 ".\\i2cLCD.h"
 656              		.file 7 "Generated_Source\\PSoC5/I2C.h"
 657              		.file 8 "c:\\program files (x86)\\cypress\\psoc creator\\3.3\\psoc creator\\import\\gnu\\arm\\4.9.
ARM GAS  C:\Users\Javier\AppData\Local\Temp\ccbw4HU9.s 			page 16


 658              		.file 9 "Generated_Source\\PSoC5/CyLib.h"
 659              		.file 10 "Generated_Source\\PSoC5/core_cm3.h"