ARM GAS  C:\Users\Javier\AppData\Local\Temp\ccg8BjBl.s 			page 1


   1              		.syntax unified
   2              		.cpu cortex-m3
   3              		.fpu softvfp
   4              		.eabi_attribute 20, 1
   5              		.eabi_attribute 21, 1
   6              		.eabi_attribute 23, 3
   7              		.eabi_attribute 24, 1
   8              		.eabi_attribute 25, 1
   9              		.eabi_attribute 26, 1
  10              		.eabi_attribute 30, 1
  11              		.eabi_attribute 34, 1
  12              		.eabi_attribute 18, 4
  13              		.thumb
  14              		.file	"gnome_execute.c"
  15              		.text
  16              	.Ltext0:
  17              		.cfi_sections	.debug_frame
  18              		.section	.text.clear_c_inst,"ax",%progbits
  19              		.align	2
  20              		.global	clear_c_inst
  21              		.thumb
  22              		.thumb_func
  23              		.type	clear_c_inst, %function
  24              	clear_c_inst:
  25              	.LFB63:
  26              		.file 1 ".\\gnome_execute.c"
   1:.\gnome_execute.c **** /* ========================================
   2:.\gnome_execute.c ****  *
   3:.\gnome_execute.c ****  * Copyright YOUR COMPANY, THE YEAR
   4:.\gnome_execute.c ****  * All Rights Reserved
   5:.\gnome_execute.c ****  * UNPUBLISHED, LICENSED SOFTWARE.
   6:.\gnome_execute.c ****  *
   7:.\gnome_execute.c ****  * CONFIDENTIAL AND PROPRIETARY INFORMATION
   8:.\gnome_execute.c ****  * WHICH IS THE PROPERTY OF your company.
   9:.\gnome_execute.c ****  *
  10:.\gnome_execute.c ****  * ========================================
  11:.\gnome_execute.c **** */
  12:.\gnome_execute.c **** 
  13:.\gnome_execute.c **** #include "gnome_execute.h"
  14:.\gnome_execute.c **** #include "gnome_memory.h"
  15:.\gnome_execute.c **** 
  16:.\gnome_execute.c **** // CLEAR_C
  17:.\gnome_execute.c **** // C: Pone a 0
  18:.\gnome_execute.c **** // Z: No Actualiza
  19:.\gnome_execute.c **** void clear_c_inst() {
  27              		.loc 1 19 0
  28              		.cfi_startproc
  29              		@ args = 0, pretend = 0, frame = 0
  30              		@ frame_needed = 0, uses_anonymous_args = 0
  31              		@ link register save eliminated.
  20:.\gnome_execute.c ****     current_context->flags.C = 0;
  32              		.loc 1 20 0
  33 0000 024B     		ldr	r3, .L2
  34 0002 1B68     		ldr	r3, [r3]
  35 0004 0022     		movs	r2, #0
  36 0006 5A70     		strb	r2, [r3, #1]
  37 0008 7047     		bx	lr
ARM GAS  C:\Users\Javier\AppData\Local\Temp\ccg8BjBl.s 			page 2


  38              	.L3:
  39 000a 00BF     		.align	2
  40              	.L2:
  41 000c 00000000 		.word	current_context
  42              		.cfi_endproc
  43              	.LFE63:
  44              		.size	clear_c_inst, .-clear_c_inst
  45              		.section	.text.set_c_inst,"ax",%progbits
  46              		.align	2
  47              		.global	set_c_inst
  48              		.thumb
  49              		.thumb_func
  50              		.type	set_c_inst, %function
  51              	set_c_inst:
  52              	.LFB64:
  21:.\gnome_execute.c **** }
  22:.\gnome_execute.c **** 
  23:.\gnome_execute.c **** // SET_C
  24:.\gnome_execute.c **** // C: Pone a 1
  25:.\gnome_execute.c **** // Z: No Actualiza
  26:.\gnome_execute.c **** void set_c_inst() {
  53              		.loc 1 26 0
  54              		.cfi_startproc
  55              		@ args = 0, pretend = 0, frame = 0
  56              		@ frame_needed = 0, uses_anonymous_args = 0
  57              		@ link register save eliminated.
  27:.\gnome_execute.c ****     current_context->flags.C = 1;
  58              		.loc 1 27 0
  59 0000 024B     		ldr	r3, .L5
  60 0002 1B68     		ldr	r3, [r3]
  61 0004 0122     		movs	r2, #1
  62 0006 5A70     		strb	r2, [r3, #1]
  63 0008 7047     		bx	lr
  64              	.L6:
  65 000a 00BF     		.align	2
  66              	.L5:
  67 000c 00000000 		.word	current_context
  68              		.cfi_endproc
  69              	.LFE64:
  70              		.size	set_c_inst, .-set_c_inst
  71              		.section	.text.skip_c_inst,"ax",%progbits
  72              		.align	2
  73              		.global	skip_c_inst
  74              		.thumb
  75              		.thumb_func
  76              		.type	skip_c_inst, %function
  77              	skip_c_inst:
  78              	.LFB65:
  28:.\gnome_execute.c **** }
  29:.\gnome_execute.c **** 
  30:.\gnome_execute.c **** // SKIP_C
  31:.\gnome_execute.c **** // C: No Actualiza
  32:.\gnome_execute.c **** // Z: No Actualiza
  33:.\gnome_execute.c **** void skip_c_inst() {
  79              		.loc 1 33 0
  80              		.cfi_startproc
  81              		@ args = 0, pretend = 0, frame = 0
ARM GAS  C:\Users\Javier\AppData\Local\Temp\ccg8BjBl.s 			page 3


  82              		@ frame_needed = 0, uses_anonymous_args = 0
  83              		@ link register save eliminated.
  34:.\gnome_execute.c ****     if (current_context->flags.C)
  84              		.loc 1 34 0
  85 0000 034B     		ldr	r3, .L9
  86 0002 1B68     		ldr	r3, [r3]
  87 0004 5A78     		ldrb	r2, [r3, #1]	@ zero_extendqisi2
  88 0006 12B1     		cbz	r2, .L7
  35:.\gnome_execute.c ****         current_context->PC++;
  89              		.loc 1 35 0
  90 0008 DA78     		ldrb	r2, [r3, #3]	@ zero_extendqisi2
  91 000a 0132     		adds	r2, r2, #1
  92 000c DA70     		strb	r2, [r3, #3]
  93              	.L7:
  94 000e 7047     		bx	lr
  95              	.L10:
  96              		.align	2
  97              	.L9:
  98 0010 00000000 		.word	current_context
  99              		.cfi_endproc
 100              	.LFE65:
 101              		.size	skip_c_inst, .-skip_c_inst
 102              		.section	.text.skip_z_inst,"ax",%progbits
 103              		.align	2
 104              		.global	skip_z_inst
 105              		.thumb
 106              		.thumb_func
 107              		.type	skip_z_inst, %function
 108              	skip_z_inst:
 109              	.LFB66:
  36:.\gnome_execute.c **** }
  37:.\gnome_execute.c **** 
  38:.\gnome_execute.c **** // SKIP_Z
  39:.\gnome_execute.c **** // C: No Actualiza
  40:.\gnome_execute.c **** // Z: No Actualiza
  41:.\gnome_execute.c **** void skip_z_inst() {
 110              		.loc 1 41 0
 111              		.cfi_startproc
 112              		@ args = 0, pretend = 0, frame = 0
 113              		@ frame_needed = 0, uses_anonymous_args = 0
 114              		@ link register save eliminated.
  42:.\gnome_execute.c ****     if (current_context->flags.Z)
 115              		.loc 1 42 0
 116 0000 034B     		ldr	r3, .L13
 117 0002 1B68     		ldr	r3, [r3]
 118 0004 9A78     		ldrb	r2, [r3, #2]	@ zero_extendqisi2
 119 0006 12B1     		cbz	r2, .L11
  43:.\gnome_execute.c ****         current_context->PC++;
 120              		.loc 1 43 0
 121 0008 DA78     		ldrb	r2, [r3, #3]	@ zero_extendqisi2
 122 000a 0132     		adds	r2, r2, #1
 123 000c DA70     		strb	r2, [r3, #3]
 124              	.L11:
 125 000e 7047     		bx	lr
 126              	.L14:
 127              		.align	2
 128              	.L13:
ARM GAS  C:\Users\Javier\AppData\Local\Temp\ccg8BjBl.s 			page 4


 129 0010 00000000 		.word	current_context
 130              		.cfi_endproc
 131              	.LFE66:
 132              		.size	skip_z_inst, .-skip_z_inst
 133              		.section	.text.push_inst,"ax",%progbits
 134              		.align	2
 135              		.global	push_inst
 136              		.thumb
 137              		.thumb_func
 138              		.type	push_inst, %function
 139              	push_inst:
 140              	.LFB67:
  44:.\gnome_execute.c **** }
  45:.\gnome_execute.c **** 
  46:.\gnome_execute.c **** // Push
  47:.\gnome_execute.c **** // C: No Actualiza
  48:.\gnome_execute.c **** // Z: No Actualiza
  49:.\gnome_execute.c **** void push_inst() {
 141              		.loc 1 49 0
 142              		.cfi_startproc
 143              		@ args = 0, pretend = 0, frame = 0
 144              		@ frame_needed = 0, uses_anonymous_args = 0
 145              		@ link register save eliminated.
 146 0000 10B4     		push	{r4}
 147              		.cfi_def_cfa_offset 4
 148              		.cfi_offset 4, -4
  50:.\gnome_execute.c ****     current_context->ind_addr_reg.data &= 0x0F << 4* (!(0x01 & current_context->ind_addr_reg.ptr));
 149              		.loc 1 50 0
 150 0002 0B4B     		ldr	r3, .L19
 151 0004 1A68     		ldr	r2, [r3]
 152 0006 507A     		ldrb	r0, [r2, #9]	@ zero_extendqisi2
 153 0008 937A     		ldrb	r3, [r2, #10]	@ zero_extendqisi2
 154 000a 13F00104 		ands	r4, r3, #1
 155 000e 01D1     		bne	.L17
 156 0010 F021     		movs	r1, #240
 157 0012 00E0     		b	.L16
 158              	.L17:
 159 0014 0F21     		movs	r1, #15
 160              	.L16:
 161              		.loc 1 50 0 is_stmt 0 discriminator 4
 162 0016 0840     		ands	r0, r0, r1
  51:.\gnome_execute.c ****     current_context->ind_addr_reg.data += current_context->accumulator << 4*(0x01 & current_context
 163              		.loc 1 51 0 is_stmt 1 discriminator 4
 164 0018 1178     		ldrb	r1, [r2]	@ zero_extendqisi2
 165 001a A400     		lsls	r4, r4, #2
 166 001c A140     		lsls	r1, r1, r4
 167 001e 0144     		add	r1, r1, r0
 168 0020 5172     		strb	r1, [r2, #9]
  52:.\gnome_execute.c ****     current_context->ind_addr_reg.ptr = !current_context->ind_addr_reg.ptr;
 169              		.loc 1 52 0 discriminator 4
 170 0022 B3FA83F3 		clz	r3, r3
 171 0026 5B09     		lsrs	r3, r3, #5
 172 0028 9372     		strb	r3, [r2, #10]
  53:.\gnome_execute.c **** }
 173              		.loc 1 53 0 discriminator 4
 174 002a 5DF8044B 		ldr	r4, [sp], #4
 175              		.cfi_restore 4
ARM GAS  C:\Users\Javier\AppData\Local\Temp\ccg8BjBl.s 			page 5


 176              		.cfi_def_cfa_offset 0
 177 002e 7047     		bx	lr
 178              	.L20:
 179              		.align	2
 180              	.L19:
 181 0030 00000000 		.word	current_context
 182              		.cfi_endproc
 183              	.LFE67:
 184              		.size	push_inst, .-push_inst
 185              		.section	.text.rts_inst,"ax",%progbits
 186              		.align	2
 187              		.global	rts_inst
 188              		.thumb
 189              		.thumb_func
 190              		.type	rts_inst, %function
 191              	rts_inst:
 192              	.LFB68:
  54:.\gnome_execute.c **** 
  55:.\gnome_execute.c **** // RTS
  56:.\gnome_execute.c **** // C: No Actualiza
  57:.\gnome_execute.c **** // Z: No Actualiza
  58:.\gnome_execute.c **** void rts_inst() {
 193              		.loc 1 58 0
 194              		.cfi_startproc
 195              		@ args = 0, pretend = 0, frame = 0
 196              		@ frame_needed = 0, uses_anonymous_args = 0
 197              		@ link register save eliminated.
  59:.\gnome_execute.c ****     current_context->PC = current_context->stack.data[current_context->stack.ptr];
 198              		.loc 1 59 0
 199 0000 0749     		ldr	r1, .L23
 200 0002 0B68     		ldr	r3, [r1]
 201 0004 1A7A     		ldrb	r2, [r3, #8]	@ zero_extendqisi2
 202 0006 1A44     		add	r2, r2, r3
 203 0008 1279     		ldrb	r2, [r2, #4]	@ zero_extendqisi2
 204 000a DA70     		strb	r2, [r3, #3]
  60:.\gnome_execute.c ****     current_context->stack.ptr--;
 205              		.loc 1 60 0
 206 000c 0A68     		ldr	r2, [r1]
 207 000e 137A     		ldrb	r3, [r2, #8]	@ zero_extendqisi2
 208 0010 013B     		subs	r3, r3, #1
 209 0012 DBB2     		uxtb	r3, r3
 210 0014 1372     		strb	r3, [r2, #8]
  61:.\gnome_execute.c ****     if(current_context->stack.ptr >= GNOME_STACK_SIZE) current_context->stack.ptr = GNOME_STACK_SIZ
 211              		.loc 1 61 0
 212 0016 032B     		cmp	r3, #3
 213 0018 01D9     		bls	.L21
 214              		.loc 1 61 0 is_stmt 0 discriminator 1
 215 001a 0323     		movs	r3, #3
 216 001c 1372     		strb	r3, [r2, #8]
 217              	.L21:
 218 001e 7047     		bx	lr
 219              	.L24:
 220              		.align	2
 221              	.L23:
 222 0020 00000000 		.word	current_context
 223              		.cfi_endproc
 224              	.LFE68:
ARM GAS  C:\Users\Javier\AppData\Local\Temp\ccg8BjBl.s 			page 6


 225              		.size	rts_inst, .-rts_inst
 226              		.section	.text.jsr_inst,"ax",%progbits
 227              		.align	2
 228              		.global	jsr_inst
 229              		.thumb
 230              		.thumb_func
 231              		.type	jsr_inst, %function
 232              	jsr_inst:
 233              	.LFB69:
  62:.\gnome_execute.c **** }
  63:.\gnome_execute.c **** 
  64:.\gnome_execute.c **** // JSR
  65:.\gnome_execute.c **** // C: No Actualiza
  66:.\gnome_execute.c **** // Z: No Actualiza
  67:.\gnome_execute.c **** void jsr_inst() {
 234              		.loc 1 67 0 is_stmt 1
 235              		.cfi_startproc
 236              		@ args = 0, pretend = 0, frame = 0
 237              		@ frame_needed = 0, uses_anonymous_args = 0
 238              		@ link register save eliminated.
  68:.\gnome_execute.c ****     current_context->stack.ptr++;
 239              		.loc 1 68 0
 240 0000 084B     		ldr	r3, .L27
 241 0002 1B68     		ldr	r3, [r3]
 242 0004 1A7A     		ldrb	r2, [r3, #8]	@ zero_extendqisi2
 243 0006 0132     		adds	r2, r2, #1
 244 0008 D2B2     		uxtb	r2, r2
 245 000a 1A72     		strb	r2, [r3, #8]
  69:.\gnome_execute.c ****     if(current_context->stack.ptr >= GNOME_STACK_SIZE) 
 246              		.loc 1 69 0
 247 000c 032A     		cmp	r2, #3
 248 000e 01D9     		bls	.L26
  70:.\gnome_execute.c ****         current_context->stack.ptr = 0;
 249              		.loc 1 70 0
 250 0010 0022     		movs	r2, #0
 251 0012 1A72     		strb	r2, [r3, #8]
 252              	.L26:
  71:.\gnome_execute.c ****     current_context->stack.data[current_context->stack.ptr] = current_context->PC;
 253              		.loc 1 71 0
 254 0014 1A7A     		ldrb	r2, [r3, #8]	@ zero_extendqisi2
 255 0016 D978     		ldrb	r1, [r3, #3]	@ zero_extendqisi2
 256 0018 1A44     		add	r2, r2, r3
 257 001a 1171     		strb	r1, [r2, #4]
  72:.\gnome_execute.c ****     current_context->PC = current_context->ind_addr_reg.data;
 258              		.loc 1 72 0
 259 001c 5A7A     		ldrb	r2, [r3, #9]	@ zero_extendqisi2
 260 001e DA70     		strb	r2, [r3, #3]
 261 0020 7047     		bx	lr
 262              	.L28:
 263 0022 00BF     		.align	2
 264              	.L27:
 265 0024 00000000 		.word	current_context
 266              		.cfi_endproc
 267              	.LFE69:
 268              		.size	jsr_inst, .-jsr_inst
 269              		.section	.text.rti_inst,"ax",%progbits
 270              		.align	2
ARM GAS  C:\Users\Javier\AppData\Local\Temp\ccg8BjBl.s 			page 7


 271              		.global	rti_inst
 272              		.thumb
 273              		.thumb_func
 274              		.type	rti_inst, %function
 275              	rti_inst:
 276              	.LFB70:
  73:.\gnome_execute.c **** }
  74:.\gnome_execute.c **** 
  75:.\gnome_execute.c **** // RTI
  76:.\gnome_execute.c **** // C: No Actualiza
  77:.\gnome_execute.c **** // Z: No Actualiza
  78:.\gnome_execute.c **** // Sets return flag
  79:.\gnome_execute.c **** void rti_inst() {
 277              		.loc 1 79 0
 278              		.cfi_startproc
 279              		@ args = 0, pretend = 0, frame = 0
 280              		@ frame_needed = 0, uses_anonymous_args = 0
 281              		@ link register save eliminated.
  80:.\gnome_execute.c ****     current_context = &normal_context;
 282              		.loc 1 80 0
 283 0000 014A     		ldr	r2, .L30
 284 0002 024B     		ldr	r3, .L30+4
 285 0004 1A60     		str	r2, [r3]
 286 0006 7047     		bx	lr
 287              	.L31:
 288              		.align	2
 289              	.L30:
 290 0008 00000000 		.word	normal_context
 291 000c 00000000 		.word	current_context
 292              		.cfi_endproc
 293              	.LFE70:
 294              		.size	rti_inst, .-rti_inst
 295              		.section	.text.branch_inst,"ax",%progbits
 296              		.align	2
 297              		.global	branch_inst
 298              		.thumb
 299              		.thumb_func
 300              		.type	branch_inst, %function
 301              	branch_inst:
 302              	.LFB71:
  81:.\gnome_execute.c **** }
  82:.\gnome_execute.c **** 
  83:.\gnome_execute.c **** // BRANCH
  84:.\gnome_execute.c **** // C: No Actualiza
  85:.\gnome_execute.c **** // Z: No Actualiza
  86:.\gnome_execute.c **** void branch_inst() {
 303              		.loc 1 86 0
 304              		.cfi_startproc
 305              		@ args = 0, pretend = 0, frame = 0
 306              		@ frame_needed = 0, uses_anonymous_args = 0
 307              		@ link register save eliminated.
  87:.\gnome_execute.c ****     current_context->PC = current_context->ind_addr_reg.data;
 308              		.loc 1 87 0
 309 0000 024B     		ldr	r3, .L33
 310 0002 1B68     		ldr	r3, [r3]
 311 0004 5A7A     		ldrb	r2, [r3, #9]	@ zero_extendqisi2
 312 0006 DA70     		strb	r2, [r3, #3]
ARM GAS  C:\Users\Javier\AppData\Local\Temp\ccg8BjBl.s 			page 8


 313 0008 7047     		bx	lr
 314              	.L34:
 315 000a 00BF     		.align	2
 316              	.L33:
 317 000c 00000000 		.word	current_context
 318              		.cfi_endproc
 319              	.LFE71:
 320              		.size	branch_inst, .-branch_inst
 321              		.section	.text.ror_inst,"ax",%progbits
 322              		.align	2
 323              		.global	ror_inst
 324              		.thumb
 325              		.thumb_func
 326              		.type	ror_inst, %function
 327              	ror_inst:
 328              	.LFB72:
  88:.\gnome_execute.c **** }
  89:.\gnome_execute.c **** 
  90:.\gnome_execute.c **** // ROR
  91:.\gnome_execute.c **** // C: Actualiza
  92:.\gnome_execute.c **** // Z: Actualiza
  93:.\gnome_execute.c **** void ror_inst() {
 329              		.loc 1 93 0
 330              		.cfi_startproc
 331              		@ args = 0, pretend = 0, frame = 0
 332              		@ frame_needed = 0, uses_anonymous_args = 0
 333              		@ link register save eliminated.
  94:.\gnome_execute.c ****     uint8_t carry = current_context->flags.C;
 334              		.loc 1 94 0
 335 0000 0C4B     		ldr	r3, .L38
 336 0002 1A68     		ldr	r2, [r3]
 337 0004 5378     		ldrb	r3, [r2, #1]	@ zero_extendqisi2
 338              	.LVL0:
  95:.\gnome_execute.c ****     
  96:.\gnome_execute.c ****     if (current_context->accumulator & 0x01)
 339              		.loc 1 96 0
 340 0006 1178     		ldrb	r1, [r2]	@ zero_extendqisi2
 341 0008 11F0010F 		tst	r1, #1
 342 000c 02D0     		beq	.L36
  97:.\gnome_execute.c ****         current_context->flags.C = 1;
 343              		.loc 1 97 0
 344 000e 0121     		movs	r1, #1
 345 0010 5170     		strb	r1, [r2, #1]
 346 0012 01E0     		b	.L37
 347              	.L36:
  98:.\gnome_execute.c ****     else 
  99:.\gnome_execute.c ****         current_context->flags.C = 0;
 348              		.loc 1 99 0
 349 0014 0021     		movs	r1, #0
 350 0016 5170     		strb	r1, [r2, #1]
 351              	.L37:
 100:.\gnome_execute.c ****     
 101:.\gnome_execute.c ****     current_context->accumulator = (current_context->accumulator >> 1) + 0x08 * carry;
 352              		.loc 1 101 0
 353 0018 064A     		ldr	r2, .L38
 354 001a 1168     		ldr	r1, [r2]
 355 001c 0878     		ldrb	r0, [r1]	@ zero_extendqisi2
ARM GAS  C:\Users\Javier\AppData\Local\Temp\ccg8BjBl.s 			page 9


 356 001e DB00     		lsls	r3, r3, #3
 357              	.LVL1:
 358 0020 03EB5003 		add	r3, r3, r0, lsr #1
 359 0024 0B70     		strb	r3, [r1]
 102:.\gnome_execute.c ****     
 103:.\gnome_execute.c ****     current_context->flags.Z = current_context->accumulator == 0;
 360              		.loc 1 103 0
 361 0026 1268     		ldr	r2, [r2]
 362 0028 1378     		ldrb	r3, [r2]	@ zero_extendqisi2
 363 002a B3FA83F3 		clz	r3, r3
 364 002e 5B09     		lsrs	r3, r3, #5
 365 0030 9370     		strb	r3, [r2, #2]
 366 0032 7047     		bx	lr
 367              	.L39:
 368              		.align	2
 369              	.L38:
 370 0034 00000000 		.word	current_context
 371              		.cfi_endproc
 372              	.LFE72:
 373              		.size	ror_inst, .-ror_inst
 374              		.section	.text.rol_inst,"ax",%progbits
 375              		.align	2
 376              		.global	rol_inst
 377              		.thumb
 378              		.thumb_func
 379              		.type	rol_inst, %function
 380              	rol_inst:
 381              	.LFB73:
 104:.\gnome_execute.c **** }
 105:.\gnome_execute.c **** 
 106:.\gnome_execute.c **** // ROL
 107:.\gnome_execute.c **** // C: Actualiza
 108:.\gnome_execute.c **** // Z: Actualiza
 109:.\gnome_execute.c **** void rol_inst() {
 382              		.loc 1 109 0
 383              		.cfi_startproc
 384              		@ args = 0, pretend = 0, frame = 0
 385              		@ frame_needed = 0, uses_anonymous_args = 0
 386              		@ link register save eliminated.
 110:.\gnome_execute.c ****     uint8_t carry = current_context->flags.C;
 387              		.loc 1 110 0
 388 0000 0D4B     		ldr	r3, .L43
 389 0002 1A68     		ldr	r2, [r3]
 390 0004 5078     		ldrb	r0, [r2, #1]	@ zero_extendqisi2
 391              	.LVL2:
 111:.\gnome_execute.c ****     if (current_context->accumulator & 0x08)
 392              		.loc 1 111 0
 393 0006 1378     		ldrb	r3, [r2]	@ zero_extendqisi2
 394 0008 13F0080F 		tst	r3, #8
 395 000c 02D0     		beq	.L41
 112:.\gnome_execute.c ****         current_context->flags.C = 1;
 396              		.loc 1 112 0
 397 000e 0123     		movs	r3, #1
 398 0010 5370     		strb	r3, [r2, #1]
 399 0012 01E0     		b	.L42
 400              	.L41:
 113:.\gnome_execute.c ****     else 
ARM GAS  C:\Users\Javier\AppData\Local\Temp\ccg8BjBl.s 			page 10


 114:.\gnome_execute.c ****         current_context->flags.C = 0;
 401              		.loc 1 114 0
 402 0014 0023     		movs	r3, #0
 403 0016 5370     		strb	r3, [r2, #1]
 404              	.L42:
 115:.\gnome_execute.c ****     
 116:.\gnome_execute.c ****     current_context->accumulator = ((current_context->accumulator << 1) & 0x0F) + carry;
 405              		.loc 1 116 0
 406 0018 074A     		ldr	r2, .L43
 407 001a 1168     		ldr	r1, [r2]
 408 001c 0B78     		ldrb	r3, [r1]	@ zero_extendqisi2
 409 001e 5B00     		lsls	r3, r3, #1
 410 0020 03F00F03 		and	r3, r3, #15
 411 0024 0344     		add	r3, r3, r0
 412 0026 0B70     		strb	r3, [r1]
 117:.\gnome_execute.c ****     
 118:.\gnome_execute.c ****     current_context->flags.Z = current_context->accumulator == 0;
 413              		.loc 1 118 0
 414 0028 1268     		ldr	r2, [r2]
 415 002a 1378     		ldrb	r3, [r2]	@ zero_extendqisi2
 416 002c B3FA83F3 		clz	r3, r3
 417 0030 5B09     		lsrs	r3, r3, #5
 418 0032 9370     		strb	r3, [r2, #2]
 419 0034 7047     		bx	lr
 420              	.L44:
 421 0036 00BF     		.align	2
 422              	.L43:
 423 0038 00000000 		.word	current_context
 424              		.cfi_endproc
 425              	.LFE73:
 426              		.size	rol_inst, .-rol_inst
 427              		.section	.text.load_d_inst,"ax",%progbits
 428              		.align	2
 429              		.global	load_d_inst
 430              		.thumb
 431              		.thumb_func
 432              		.type	load_d_inst, %function
 433              	load_d_inst:
 434              	.LFB74:
 119:.\gnome_execute.c **** }
 120:.\gnome_execute.c **** 
 121:.\gnome_execute.c **** // STORE_RD
 122:.\gnome_execute.c **** // C: No Actualiza
 123:.\gnome_execute.c **** // Z: Actualiza
 124:.\gnome_execute.c **** void load_d_inst(uint8_t immediate) {
 435              		.loc 1 124 0
 436              		.cfi_startproc
 437              		@ args = 0, pretend = 0, frame = 0
 438              		@ frame_needed = 0, uses_anonymous_args = 0
 439              		@ link register save eliminated.
 440              	.LVL3:
 125:.\gnome_execute.c ****     current_context->accumulator = 0x0F & immediate;
 441              		.loc 1 125 0
 442 0000 054B     		ldr	r3, .L46
 443 0002 1A68     		ldr	r2, [r3]
 444 0004 00F00F00 		and	r0, r0, #15
 445              	.LVL4:
ARM GAS  C:\Users\Javier\AppData\Local\Temp\ccg8BjBl.s 			page 11


 446 0008 1070     		strb	r0, [r2]
 126:.\gnome_execute.c ****     
 127:.\gnome_execute.c ****     current_context->flags.Z = current_context->accumulator == 0;
 447              		.loc 1 127 0
 448 000a 1A68     		ldr	r2, [r3]
 449 000c 1378     		ldrb	r3, [r2]	@ zero_extendqisi2
 450 000e B3FA83F3 		clz	r3, r3
 451 0012 5B09     		lsrs	r3, r3, #5
 452 0014 9370     		strb	r3, [r2, #2]
 453 0016 7047     		bx	lr
 454              	.L47:
 455              		.align	2
 456              	.L46:
 457 0018 00000000 		.word	current_context
 458              		.cfi_endproc
 459              	.LFE74:
 460              		.size	load_d_inst, .-load_d_inst
 461              		.section	.text.add_d_inst,"ax",%progbits
 462              		.align	2
 463              		.global	add_d_inst
 464              		.thumb
 465              		.thumb_func
 466              		.type	add_d_inst, %function
 467              	add_d_inst:
 468              	.LFB75:
 128:.\gnome_execute.c **** }
 129:.\gnome_execute.c **** 
 130:.\gnome_execute.c **** // STORE_RD
 131:.\gnome_execute.c **** // C: Actualiza
 132:.\gnome_execute.c **** // Z: Actualiza
 133:.\gnome_execute.c **** void add_d_inst(uint8_t immediate) {
 469              		.loc 1 133 0
 470              		.cfi_startproc
 471              		@ args = 0, pretend = 0, frame = 0
 472              		@ frame_needed = 0, uses_anonymous_args = 0
 473              		@ link register save eliminated.
 474              	.LVL5:
 475 0000 10B4     		push	{r4}
 476              		.cfi_def_cfa_offset 4
 477              		.cfi_offset 4, -4
 134:.\gnome_execute.c ****     current_context->accumulator = current_context->accumulator + (0x0F & immediate) + current_cont
 478              		.loc 1 134 0
 479 0002 124A     		ldr	r2, .L54
 480 0004 1368     		ldr	r3, [r2]
 481 0006 1C78     		ldrb	r4, [r3]	@ zero_extendqisi2
 482 0008 5978     		ldrb	r1, [r3, #1]	@ zero_extendqisi2
 483 000a 00F00F00 		and	r0, r0, #15
 484              	.LVL6:
 485 000e 2044     		add	r0, r0, r4
 486 0010 0844     		add	r0, r0, r1
 487 0012 1870     		strb	r0, [r3]
 135:.\gnome_execute.c ****     
 136:.\gnome_execute.c ****     // Actualiza C
 137:.\gnome_execute.c ****     if (current_context->accumulator & 0x10) {
 488              		.loc 1 137 0
 489 0014 1268     		ldr	r2, [r2]
 490 0016 1378     		ldrb	r3, [r2]	@ zero_extendqisi2
ARM GAS  C:\Users\Javier\AppData\Local\Temp\ccg8BjBl.s 			page 12


 491 0018 13F0100F 		tst	r3, #16
 492 001c 07D0     		beq	.L49
 138:.\gnome_execute.c ****         current_context->accumulator &= 0x0F;
 493              		.loc 1 138 0
 494 001e 03F00F03 		and	r3, r3, #15
 495 0022 1370     		strb	r3, [r2]
 139:.\gnome_execute.c ****         current_context->flags.C = 1;
 496              		.loc 1 139 0
 497 0024 094B     		ldr	r3, .L54
 498 0026 1B68     		ldr	r3, [r3]
 499 0028 0122     		movs	r2, #1
 500 002a 5A70     		strb	r2, [r3, #1]
 501 002c 01E0     		b	.L50
 502              	.L49:
 140:.\gnome_execute.c ****     } else
 141:.\gnome_execute.c ****         current_context->flags.C = 0;
 503              		.loc 1 141 0
 504 002e 0023     		movs	r3, #0
 505 0030 5370     		strb	r3, [r2, #1]
 506              	.L50:
 142:.\gnome_execute.c ****     
 143:.\gnome_execute.c ****     // Actualiza Z
 144:.\gnome_execute.c ****     if (current_context->accumulator == 0)
 507              		.loc 1 144 0
 508 0032 064B     		ldr	r3, .L54
 509 0034 1B68     		ldr	r3, [r3]
 510 0036 1A78     		ldrb	r2, [r3]	@ zero_extendqisi2
 511 0038 12B9     		cbnz	r2, .L51
 145:.\gnome_execute.c ****         current_context->flags.Z = 1;
 512              		.loc 1 145 0
 513 003a 0122     		movs	r2, #1
 514 003c 9A70     		strb	r2, [r3, #2]
 515 003e 01E0     		b	.L48
 516              	.L51:
 146:.\gnome_execute.c ****     else 
 147:.\gnome_execute.c ****         current_context->flags.Z = 0;
 517              		.loc 1 147 0
 518 0040 0022     		movs	r2, #0
 519 0042 9A70     		strb	r2, [r3, #2]
 520              	.L48:
 148:.\gnome_execute.c **** }
 521              		.loc 1 148 0
 522 0044 5DF8044B 		ldr	r4, [sp], #4
 523              		.cfi_restore 4
 524              		.cfi_def_cfa_offset 0
 525 0048 7047     		bx	lr
 526              	.L55:
 527 004a 00BF     		.align	2
 528              	.L54:
 529 004c 00000000 		.word	current_context
 530              		.cfi_endproc
 531              	.LFE75:
 532              		.size	add_d_inst, .-add_d_inst
 533              		.section	.text.store_rd_inst,"ax",%progbits
 534              		.align	2
 535              		.global	store_rd_inst
 536              		.thumb
ARM GAS  C:\Users\Javier\AppData\Local\Temp\ccg8BjBl.s 			page 13


 537              		.thumb_func
 538              		.type	store_rd_inst, %function
 539              	store_rd_inst:
 540              	.LFB76:
 149:.\gnome_execute.c **** 
 150:.\gnome_execute.c **** // STORE_RD
 151:.\gnome_execute.c **** // C: No Actualiza
 152:.\gnome_execute.c **** // Z: No Actualiza
 153:.\gnome_execute.c **** void store_rd_inst(uint8_t regist) {
 541              		.loc 1 153 0
 542              		.cfi_startproc
 543              		@ args = 0, pretend = 0, frame = 0
 544              		@ frame_needed = 0, uses_anonymous_args = 0
 545              	.LVL7:
 546 0000 08B5     		push	{r3, lr}
 547              		.cfi_def_cfa_offset 8
 548              		.cfi_offset 3, -8
 549              		.cfi_offset 14, -4
 154:.\gnome_execute.c ****     gnome_store_reg(regist);
 550              		.loc 1 154 0
 551 0002 FFF7FEFF 		bl	gnome_store_reg
 552              	.LVL8:
 553 0006 08BD     		pop	{r3, pc}
 554              		.cfi_endproc
 555              	.LFE76:
 556              		.size	store_rd_inst, .-store_rd_inst
 557              		.section	.text.load_rd_inst,"ax",%progbits
 558              		.align	2
 559              		.global	load_rd_inst
 560              		.thumb
 561              		.thumb_func
 562              		.type	load_rd_inst, %function
 563              	load_rd_inst:
 564              	.LFB77:
 155:.\gnome_execute.c **** }
 156:.\gnome_execute.c **** 
 157:.\gnome_execute.c **** // XOR_RD
 158:.\gnome_execute.c **** // C: Not Actualiza
 159:.\gnome_execute.c **** // Z: Actualiza
 160:.\gnome_execute.c **** void load_rd_inst(uint8_t regist) {
 565              		.loc 1 160 0
 566              		.cfi_startproc
 567              		@ args = 0, pretend = 0, frame = 0
 568              		@ frame_needed = 0, uses_anonymous_args = 0
 569              	.LVL9:
 570 0000 38B5     		push	{r3, r4, r5, lr}
 571              		.cfi_def_cfa_offset 16
 572              		.cfi_offset 3, -16
 573              		.cfi_offset 4, -12
 574              		.cfi_offset 5, -8
 575              		.cfi_offset 14, -4
 161:.\gnome_execute.c ****     current_context->accumulator = gnome_load_reg(regist);
 576              		.loc 1 161 0
 577 0002 064C     		ldr	r4, .L60
 578 0004 2568     		ldr	r5, [r4]
 579 0006 FFF7FEFF 		bl	gnome_load_reg
 580              	.LVL10:
ARM GAS  C:\Users\Javier\AppData\Local\Temp\ccg8BjBl.s 			page 14


 581 000a 2870     		strb	r0, [r5]
 162:.\gnome_execute.c ****     
 163:.\gnome_execute.c ****     current_context->flags.Z = current_context->accumulator == 0;
 582              		.loc 1 163 0
 583 000c 2268     		ldr	r2, [r4]
 584 000e 1378     		ldrb	r3, [r2]	@ zero_extendqisi2
 585 0010 B3FA83F3 		clz	r3, r3
 586 0014 5B09     		lsrs	r3, r3, #5
 587 0016 9370     		strb	r3, [r2, #2]
 588 0018 38BD     		pop	{r3, r4, r5, pc}
 589              	.L61:
 590 001a 00BF     		.align	2
 591              	.L60:
 592 001c 00000000 		.word	current_context
 593              		.cfi_endproc
 594              	.LFE77:
 595              		.size	load_rd_inst, .-load_rd_inst
 596              		.section	.text.add_rd_inst,"ax",%progbits
 597              		.align	2
 598              		.global	add_rd_inst
 599              		.thumb
 600              		.thumb_func
 601              		.type	add_rd_inst, %function
 602              	add_rd_inst:
 603              	.LFB78:
 164:.\gnome_execute.c **** }
 165:.\gnome_execute.c **** 
 166:.\gnome_execute.c **** // ADD_RD
 167:.\gnome_execute.c **** // C: Actualiza
 168:.\gnome_execute.c **** // Z: Actualiza
 169:.\gnome_execute.c **** void add_rd_inst(uint8_t regist) {
 604              		.loc 1 169 0
 605              		.cfi_startproc
 606              		@ args = 0, pretend = 0, frame = 0
 607              		@ frame_needed = 0, uses_anonymous_args = 0
 608              	.LVL11:
 609 0000 38B5     		push	{r3, r4, r5, lr}
 610              		.cfi_def_cfa_offset 16
 611              		.cfi_offset 3, -16
 612              		.cfi_offset 4, -12
 613              		.cfi_offset 5, -8
 614              		.cfi_offset 14, -4
 170:.\gnome_execute.c ****     current_context->accumulator = current_context->accumulator + (0x0F & gnome_load_reg(regist)) +
 615              		.loc 1 170 0
 616 0002 124C     		ldr	r4, .L68
 617 0004 2368     		ldr	r3, [r4]
 618 0006 1D78     		ldrb	r5, [r3]	@ zero_extendqisi2
 619 0008 FFF7FEFF 		bl	gnome_load_reg
 620              	.LVL12:
 621 000c 2368     		ldr	r3, [r4]
 622 000e 5A78     		ldrb	r2, [r3, #1]	@ zero_extendqisi2
 623 0010 00F00F00 		and	r0, r0, #15
 624 0014 2844     		add	r0, r0, r5
 625 0016 1044     		add	r0, r0, r2
 626 0018 1870     		strb	r0, [r3]
 171:.\gnome_execute.c ****     
 172:.\gnome_execute.c ****     // Update C
ARM GAS  C:\Users\Javier\AppData\Local\Temp\ccg8BjBl.s 			page 15


 173:.\gnome_execute.c ****     if (current_context->accumulator & 0x10) {
 627              		.loc 1 173 0
 628 001a 2268     		ldr	r2, [r4]
 629 001c 1378     		ldrb	r3, [r2]	@ zero_extendqisi2
 630 001e 13F0100F 		tst	r3, #16
 631 0022 06D0     		beq	.L63
 174:.\gnome_execute.c ****         current_context->accumulator &= 0x0F;
 632              		.loc 1 174 0
 633 0024 03F00F03 		and	r3, r3, #15
 634 0028 1370     		strb	r3, [r2]
 175:.\gnome_execute.c ****         current_context->flags.C = 1;
 635              		.loc 1 175 0
 636 002a 2368     		ldr	r3, [r4]
 637 002c 0122     		movs	r2, #1
 638 002e 5A70     		strb	r2, [r3, #1]
 639 0030 01E0     		b	.L64
 640              	.L63:
 176:.\gnome_execute.c ****     } else
 177:.\gnome_execute.c ****         current_context->flags.C = 0;
 641              		.loc 1 177 0
 642 0032 0023     		movs	r3, #0
 643 0034 5370     		strb	r3, [r2, #1]
 644              	.L64:
 178:.\gnome_execute.c ****     
 179:.\gnome_execute.c ****     // Update Z
 180:.\gnome_execute.c ****     if (current_context->accumulator == 0)
 645              		.loc 1 180 0
 646 0036 054B     		ldr	r3, .L68
 647 0038 1B68     		ldr	r3, [r3]
 648 003a 1A78     		ldrb	r2, [r3]	@ zero_extendqisi2
 649 003c 12B9     		cbnz	r2, .L65
 181:.\gnome_execute.c ****         current_context->flags.Z = 1;
 650              		.loc 1 181 0
 651 003e 0122     		movs	r2, #1
 652 0040 9A70     		strb	r2, [r3, #2]
 653 0042 38BD     		pop	{r3, r4, r5, pc}
 654              	.L65:
 182:.\gnome_execute.c ****     else 
 183:.\gnome_execute.c ****         current_context->flags.Z = 0;
 655              		.loc 1 183 0
 656 0044 0022     		movs	r2, #0
 657 0046 9A70     		strb	r2, [r3, #2]
 658 0048 38BD     		pop	{r3, r4, r5, pc}
 659              	.L69:
 660 004a 00BF     		.align	2
 661              	.L68:
 662 004c 00000000 		.word	current_context
 663              		.cfi_endproc
 664              	.LFE78:
 665              		.size	add_rd_inst, .-add_rd_inst
 666              		.section	.text.xor_rd_inst,"ax",%progbits
 667              		.align	2
 668              		.global	xor_rd_inst
 669              		.thumb
 670              		.thumb_func
 671              		.type	xor_rd_inst, %function
 672              	xor_rd_inst:
ARM GAS  C:\Users\Javier\AppData\Local\Temp\ccg8BjBl.s 			page 16


 673              	.LFB79:
 184:.\gnome_execute.c **** }
 185:.\gnome_execute.c **** 
 186:.\gnome_execute.c **** // XOR_RD
 187:.\gnome_execute.c **** // C: No Actualiza
 188:.\gnome_execute.c **** // Z: Actualiza
 189:.\gnome_execute.c **** void xor_rd_inst(uint8_t regist) {
 674              		.loc 1 189 0
 675              		.cfi_startproc
 676              		@ args = 0, pretend = 0, frame = 0
 677              		@ frame_needed = 0, uses_anonymous_args = 0
 678              	.LVL13:
 679 0000 08B5     		push	{r3, lr}
 680              		.cfi_def_cfa_offset 8
 681              		.cfi_offset 3, -8
 682              		.cfi_offset 14, -4
 190:.\gnome_execute.c ****     current_context->accumulator ^= gnome_load_reg(regist);
 683              		.loc 1 190 0
 684 0002 FFF7FEFF 		bl	gnome_load_reg
 685              	.LVL14:
 686 0006 064A     		ldr	r2, .L72
 687 0008 1168     		ldr	r1, [r2]
 688 000a 0B78     		ldrb	r3, [r1]	@ zero_extendqisi2
 689 000c 5840     		eors	r0, r0, r3
 690 000e 0870     		strb	r0, [r1]
 191:.\gnome_execute.c ****     current_context->flags.Z = current_context->accumulator == 0;
 691              		.loc 1 191 0
 692 0010 1268     		ldr	r2, [r2]
 693 0012 1378     		ldrb	r3, [r2]	@ zero_extendqisi2
 694 0014 B3FA83F3 		clz	r3, r3
 695 0018 5B09     		lsrs	r3, r3, #5
 696 001a 9370     		strb	r3, [r2, #2]
 697 001c 08BD     		pop	{r3, pc}
 698              	.L73:
 699 001e 00BF     		.align	2
 700              	.L72:
 701 0020 00000000 		.word	current_context
 702              		.cfi_endproc
 703              	.LFE79:
 704              		.size	xor_rd_inst, .-xor_rd_inst
 705              		.section	.text.and_rd_inst,"ax",%progbits
 706              		.align	2
 707              		.global	and_rd_inst
 708              		.thumb
 709              		.thumb_func
 710              		.type	and_rd_inst, %function
 711              	and_rd_inst:
 712              	.LFB80:
 192:.\gnome_execute.c **** }
 193:.\gnome_execute.c **** 
 194:.\gnome_execute.c **** // AND_RD
 195:.\gnome_execute.c **** // C: No Actualiza
 196:.\gnome_execute.c **** // Z: Actualiza
 197:.\gnome_execute.c **** void and_rd_inst(uint8_t regist) {
 713              		.loc 1 197 0
 714              		.cfi_startproc
 715              		@ args = 0, pretend = 0, frame = 0
ARM GAS  C:\Users\Javier\AppData\Local\Temp\ccg8BjBl.s 			page 17


 716              		@ frame_needed = 0, uses_anonymous_args = 0
 717              	.LVL15:
 718 0000 08B5     		push	{r3, lr}
 719              		.cfi_def_cfa_offset 8
 720              		.cfi_offset 3, -8
 721              		.cfi_offset 14, -4
 198:.\gnome_execute.c ****     current_context->accumulator &= gnome_load_reg(regist);
 722              		.loc 1 198 0
 723 0002 FFF7FEFF 		bl	gnome_load_reg
 724              	.LVL16:
 725 0006 064A     		ldr	r2, .L76
 726 0008 1168     		ldr	r1, [r2]
 727 000a 0B78     		ldrb	r3, [r1]	@ zero_extendqisi2
 728 000c 1840     		ands	r0, r0, r3
 729 000e 0870     		strb	r0, [r1]
 199:.\gnome_execute.c ****     current_context->flags.Z = current_context->accumulator == 0;
 730              		.loc 1 199 0
 731 0010 1268     		ldr	r2, [r2]
 732 0012 1378     		ldrb	r3, [r2]	@ zero_extendqisi2
 733 0014 B3FA83F3 		clz	r3, r3
 734 0018 5B09     		lsrs	r3, r3, #5
 735 001a 9370     		strb	r3, [r2, #2]
 736 001c 08BD     		pop	{r3, pc}
 737              	.L77:
 738 001e 00BF     		.align	2
 739              	.L76:
 740 0020 00000000 		.word	current_context
 741              		.cfi_endproc
 742              	.LFE80:
 743              		.size	and_rd_inst, .-and_rd_inst
 744              		.section	.text.jmp_add_inst,"ax",%progbits
 745              		.align	2
 746              		.global	jmp_add_inst
 747              		.thumb
 748              		.thumb_func
 749              		.type	jmp_add_inst, %function
 750              	jmp_add_inst:
 751              	.LFB81:
 200:.\gnome_execute.c **** }
 201:.\gnome_execute.c **** 
 202:.\gnome_execute.c **** // AND_RD
 203:.\gnome_execute.c **** // C: No Actualiza
 204:.\gnome_execute.c **** // Z: No Actualiza
 205:.\gnome_execute.c **** void jmp_add_inst(uint8_t regist) {
 752              		.loc 1 205 0
 753              		.cfi_startproc
 754              		@ args = 0, pretend = 0, frame = 0
 755              		@ frame_needed = 0, uses_anonymous_args = 0
 756              		@ link register save eliminated.
 757              	.LVL17:
 206:.\gnome_execute.c ****     #ifdef GNOME_JMP_ADD_ALWAYS_PAGE_0
 207:.\gnome_execute.c ****         current_context->PC = regist;
 758              		.loc 1 207 0
 759 0000 014B     		ldr	r3, .L79
 760 0002 1B68     		ldr	r3, [r3]
 761 0004 D870     		strb	r0, [r3, #3]
 762 0006 7047     		bx	lr
ARM GAS  C:\Users\Javier\AppData\Local\Temp\ccg8BjBl.s 			page 18


 763              	.L80:
 764              		.align	2
 765              	.L79:
 766 0008 00000000 		.word	current_context
 767              		.cfi_endproc
 768              	.LFE81:
 769              		.size	jmp_add_inst, .-jmp_add_inst
 770              		.section	.text.exectute,"ax",%progbits
 771              		.align	2
 772              		.global	exectute
 773              		.thumb
 774              		.thumb_func
 775              		.type	exectute, %function
 776              	exectute:
 777              	.LFB82:
 208:.\gnome_execute.c ****     #else
 209:.\gnome_execute.c ****         current_context->PC = regist + (0x80 & current_context->PC);
 210:.\gnome_execute.c ****     #endif
 211:.\gnome_execute.c **** }
 212:.\gnome_execute.c **** 
 213:.\gnome_execute.c **** void exectute(inst_enum inst, uint8_t code) {   
 778              		.loc 1 213 0
 779              		.cfi_startproc
 780              		@ args = 0, pretend = 0, frame = 0
 781              		@ frame_needed = 0, uses_anonymous_args = 0
 782              	.LVL18:
 783 0000 08B5     		push	{r3, lr}
 784              		.cfi_def_cfa_offset 8
 785              		.cfi_offset 3, -8
 786              		.cfi_offset 14, -4
 214:.\gnome_execute.c ****     switch (inst) {
 787              		.loc 1 214 0
 788 0002 1328     		cmp	r0, #19
 789 0004 53D8     		bhi	.L81
 790 0006 DFE800F0 		tbb	[pc, r0]
 791              	.L84:
 792 000a 0A       		.byte	(.L83-.L84)/2
 793 000b 0D       		.byte	(.L85-.L84)/2
 794 000c 10       		.byte	(.L86-.L84)/2
 795 000d 13       		.byte	(.L87-.L84)/2
 796 000e 16       		.byte	(.L88-.L84)/2
 797 000f 19       		.byte	(.L89-.L84)/2
 798 0010 1C       		.byte	(.L90-.L84)/2
 799 0011 1F       		.byte	(.L91-.L84)/2
 800 0012 22       		.byte	(.L92-.L84)/2
 801 0013 25       		.byte	(.L93-.L84)/2
 802 0014 28       		.byte	(.L94-.L84)/2
 803 0015 52       		.byte	(.L81-.L84)/2
 804 0016 2B       		.byte	(.L95-.L84)/2
 805 0017 30       		.byte	(.L96-.L84)/2
 806 0018 35       		.byte	(.L97-.L84)/2
 807 0019 3A       		.byte	(.L98-.L84)/2
 808 001a 3F       		.byte	(.L99-.L84)/2
 809 001b 44       		.byte	(.L100-.L84)/2
 810 001c 49       		.byte	(.L101-.L84)/2
 811 001d 4E       		.byte	(.L102-.L84)/2
 812              		.p2align 1
ARM GAS  C:\Users\Javier\AppData\Local\Temp\ccg8BjBl.s 			page 19


 813              	.L83:
 215:.\gnome_execute.c ****         case clear_c:
 216:.\gnome_execute.c ****             clear_c_inst();
 814              		.loc 1 216 0
 815 001e FFF7FEFF 		bl	clear_c_inst
 816              	.LVL19:
 217:.\gnome_execute.c ****             break;
 817              		.loc 1 217 0
 818 0022 08BD     		pop	{r3, pc}
 819              	.LVL20:
 820              	.L85:
 218:.\gnome_execute.c ****         case set_c:
 219:.\gnome_execute.c ****             set_c_inst();
 821              		.loc 1 219 0
 822 0024 FFF7FEFF 		bl	set_c_inst
 823              	.LVL21:
 220:.\gnome_execute.c ****             break;
 824              		.loc 1 220 0
 825 0028 08BD     		pop	{r3, pc}
 826              	.LVL22:
 827              	.L86:
 221:.\gnome_execute.c ****         case skip_c:
 222:.\gnome_execute.c ****             skip_c_inst();
 828              		.loc 1 222 0
 829 002a FFF7FEFF 		bl	skip_c_inst
 830              	.LVL23:
 223:.\gnome_execute.c ****             break;
 831              		.loc 1 223 0
 832 002e 08BD     		pop	{r3, pc}
 833              	.LVL24:
 834              	.L87:
 224:.\gnome_execute.c ****         case skip_z:
 225:.\gnome_execute.c ****             skip_z_inst();
 835              		.loc 1 225 0
 836 0030 FFF7FEFF 		bl	skip_z_inst
 837              	.LVL25:
 226:.\gnome_execute.c ****             break;
 838              		.loc 1 226 0
 839 0034 08BD     		pop	{r3, pc}
 840              	.LVL26:
 841              	.L88:
 227:.\gnome_execute.c ****         case push:
 228:.\gnome_execute.c ****             push_inst();
 842              		.loc 1 228 0
 843 0036 FFF7FEFF 		bl	push_inst
 844              	.LVL27:
 229:.\gnome_execute.c ****             break;
 845              		.loc 1 229 0
 846 003a 08BD     		pop	{r3, pc}
 847              	.LVL28:
 848              	.L89:
 230:.\gnome_execute.c ****         case rts:
 231:.\gnome_execute.c ****             rts_inst();
 849              		.loc 1 231 0
 850 003c FFF7FEFF 		bl	rts_inst
 851              	.LVL29:
 232:.\gnome_execute.c ****             break;
ARM GAS  C:\Users\Javier\AppData\Local\Temp\ccg8BjBl.s 			page 20


 852              		.loc 1 232 0
 853 0040 08BD     		pop	{r3, pc}
 854              	.LVL30:
 855              	.L90:
 233:.\gnome_execute.c ****         case jsr:
 234:.\gnome_execute.c ****             jsr_inst();
 856              		.loc 1 234 0
 857 0042 FFF7FEFF 		bl	jsr_inst
 858              	.LVL31:
 235:.\gnome_execute.c ****             break;
 859              		.loc 1 235 0
 860 0046 08BD     		pop	{r3, pc}
 861              	.LVL32:
 862              	.L91:
 236:.\gnome_execute.c ****         case rti:
 237:.\gnome_execute.c ****             rti_inst();
 863              		.loc 1 237 0
 864 0048 FFF7FEFF 		bl	rti_inst
 865              	.LVL33:
 238:.\gnome_execute.c ****             break;
 866              		.loc 1 238 0
 867 004c 08BD     		pop	{r3, pc}
 868              	.LVL34:
 869              	.L92:
 239:.\gnome_execute.c ****         case branch:
 240:.\gnome_execute.c ****             branch_inst();
 870              		.loc 1 240 0
 871 004e FFF7FEFF 		bl	branch_inst
 872              	.LVL35:
 241:.\gnome_execute.c ****             break;
 873              		.loc 1 241 0
 874 0052 08BD     		pop	{r3, pc}
 875              	.LVL36:
 876              	.L93:
 242:.\gnome_execute.c ****         case ror:
 243:.\gnome_execute.c ****             ror_inst();
 877              		.loc 1 243 0
 878 0054 FFF7FEFF 		bl	ror_inst
 879              	.LVL37:
 244:.\gnome_execute.c ****             break;
 880              		.loc 1 244 0
 881 0058 08BD     		pop	{r3, pc}
 882              	.LVL38:
 883              	.L94:
 245:.\gnome_execute.c ****         case rol:
 246:.\gnome_execute.c ****             rol_inst();
 884              		.loc 1 246 0
 885 005a FFF7FEFF 		bl	rol_inst
 886              	.LVL39:
 247:.\gnome_execute.c ****             break;    
 887              		.loc 1 247 0
 888 005e 08BD     		pop	{r3, pc}
 889              	.LVL40:
 890              	.L95:
 248:.\gnome_execute.c ****         case nop:
 249:.\gnome_execute.c ****             break;
 250:.\gnome_execute.c ****         case load_d:
ARM GAS  C:\Users\Javier\AppData\Local\Temp\ccg8BjBl.s 			page 21


 251:.\gnome_execute.c ****             load_d_inst(code & 0x0F);
 891              		.loc 1 251 0
 892 0060 01F00F00 		and	r0, r1, #15
 893              	.LVL41:
 894 0064 FFF7FEFF 		bl	load_d_inst
 895              	.LVL42:
 252:.\gnome_execute.c ****             break;
 896              		.loc 1 252 0
 897 0068 08BD     		pop	{r3, pc}
 898              	.LVL43:
 899              	.L96:
 253:.\gnome_execute.c ****         case add_d:
 254:.\gnome_execute.c ****             add_d_inst(code & 0x0F);
 900              		.loc 1 254 0
 901 006a 01F00F00 		and	r0, r1, #15
 902              	.LVL44:
 903 006e FFF7FEFF 		bl	add_d_inst
 904              	.LVL45:
 255:.\gnome_execute.c ****             break;
 905              		.loc 1 255 0
 906 0072 08BD     		pop	{r3, pc}
 907              	.LVL46:
 908              	.L97:
 256:.\gnome_execute.c ****         case store_rd:
 257:.\gnome_execute.c ****             store_rd_inst(code & 0x0F);
 909              		.loc 1 257 0
 910 0074 01F00F00 		and	r0, r1, #15
 911              	.LVL47:
 912 0078 FFF7FEFF 		bl	store_rd_inst
 913              	.LVL48:
 258:.\gnome_execute.c ****             break;
 914              		.loc 1 258 0
 915 007c 08BD     		pop	{r3, pc}
 916              	.LVL49:
 917              	.L98:
 259:.\gnome_execute.c ****         case load_rd:
 260:.\gnome_execute.c ****             load_rd_inst(code & 0x0F);
 918              		.loc 1 260 0
 919 007e 01F00F00 		and	r0, r1, #15
 920              	.LVL50:
 921 0082 FFF7FEFF 		bl	load_rd_inst
 922              	.LVL51:
 261:.\gnome_execute.c ****             break;
 923              		.loc 1 261 0
 924 0086 08BD     		pop	{r3, pc}
 925              	.LVL52:
 926              	.L99:
 262:.\gnome_execute.c ****         case add_rd:
 263:.\gnome_execute.c ****             add_rd_inst(code & 0x0F);
 927              		.loc 1 263 0
 928 0088 01F00F00 		and	r0, r1, #15
 929              	.LVL53:
 930 008c FFF7FEFF 		bl	add_rd_inst
 931              	.LVL54:
 264:.\gnome_execute.c ****             break;
 932              		.loc 1 264 0
 933 0090 08BD     		pop	{r3, pc}
ARM GAS  C:\Users\Javier\AppData\Local\Temp\ccg8BjBl.s 			page 22


 934              	.LVL55:
 935              	.L100:
 265:.\gnome_execute.c ****         case xor_rd:
 266:.\gnome_execute.c ****             xor_rd_inst(code & 0x0F);
 936              		.loc 1 266 0
 937 0092 01F00F00 		and	r0, r1, #15
 938              	.LVL56:
 939 0096 FFF7FEFF 		bl	xor_rd_inst
 940              	.LVL57:
 267:.\gnome_execute.c ****             break;
 941              		.loc 1 267 0
 942 009a 08BD     		pop	{r3, pc}
 943              	.LVL58:
 944              	.L101:
 268:.\gnome_execute.c ****         case and_rd:
 269:.\gnome_execute.c ****             and_rd_inst(code & 0x0F);
 945              		.loc 1 269 0
 946 009c 01F00F00 		and	r0, r1, #15
 947              	.LVL59:
 948 00a0 FFF7FEFF 		bl	and_rd_inst
 949              	.LVL60:
 270:.\gnome_execute.c ****             break;
 950              		.loc 1 270 0
 951 00a4 08BD     		pop	{r3, pc}
 952              	.LVL61:
 953              	.L102:
 271:.\gnome_execute.c ****         case jmp_add:
 272:.\gnome_execute.c ****             jmp_add_inst(code & 0x7F);
 954              		.loc 1 272 0
 955 00a6 01F07F00 		and	r0, r1, #127
 956              	.LVL62:
 957 00aa FFF7FEFF 		bl	jmp_add_inst
 958              	.LVL63:
 959              	.L81:
 960 00ae 08BD     		pop	{r3, pc}
 961              		.cfi_endproc
 962              	.LFE82:
 963              		.size	exectute, .-exectute
 964              		.comm	via_state,3,4
 965              		.comm	rom,256,4
 966              		.comm	registers,16,4
 967              		.comm	current_context,4,4
 968              		.comm	it_context,11,4
 969              		.comm	normal_context,11,4
 970              		.text
 971              	.Letext0:
 972              		.file 2 "c:\\program files (x86)\\cypress\\psoc creator\\3.3\\psoc creator\\import\\gnu\\arm\\4.9.
 973              		.file 3 "c:\\program files (x86)\\cypress\\psoc creator\\3.3\\psoc creator\\import\\gnu\\arm\\4.9.
 974              		.file 4 ".\\gnome_registers.h"
 975              		.file 5 ".\\gnome_memory.h"
 976              		.file 6 "Generated_Source\\PSoC5/core_cm3.h"