ARM GAS  C:\Users\Javier\AppData\Local\Temp\ccse1tQb.s 			page 1


   1              		.syntax unified
   2              		.cpu cortex-m3
   3              		.fpu softvfp
   4              		.eabi_attribute 20, 1
   5              		.eabi_attribute 21, 1
   6              		.eabi_attribute 23, 3
   7              		.eabi_attribute 24, 1
   8              		.eabi_attribute 25, 1
   9              		.eabi_attribute 26, 1
  10              		.eabi_attribute 30, 1
  11              		.eabi_attribute 34, 1
  12              		.eabi_attribute 18, 4
  13              		.thumb
  14              		.file	"gnome.c"
  15              		.text
  16              	.Ltext0:
  17              		.cfi_sections	.debug_frame
  18              		.section	.text.gnome_process_it,"ax",%progbits
  19              		.align	2
  20              		.global	gnome_process_it
  21              		.thumb
  22              		.thumb_func
  23              		.type	gnome_process_it, %function
  24              	gnome_process_it:
  25              	.LFB65:
  26              		.file 1 ".\\gnome.c"
   1:.\gnome.c     **** /* ========================================
   2:.\gnome.c     ****  *
   3:.\gnome.c     ****  * Copyright YOUR COMPANY, THE YEAR
   4:.\gnome.c     ****  * All Rights Reserved
   5:.\gnome.c     ****  * UNPUBLISHED, LICENSED SOFTWARE.
   6:.\gnome.c     ****  *
   7:.\gnome.c     ****  * CONFIDENTIAL AND PROPRIETARY INFORMATION
   8:.\gnome.c     ****  * WHICH IS THE PROPERTY OF your company.
   9:.\gnome.c     ****  *
  10:.\gnome.c     ****  * ========================================
  11:.\gnome.c     **** */
  12:.\gnome.c     **** 
  13:.\gnome.c     **** #include "gnome.h"
  14:.\gnome.c     **** #include "gnome_config.h"
  15:.\gnome.c     **** #include "gnome_inst_decoder.h"
  16:.\gnome.c     **** #include "gnome_execute.h"
  17:.\gnome.c     **** #include "gnome_memory.h"
  18:.\gnome.c     **** #include "gnome_lcd.h"
  19:.\gnome.c     **** 
  20:.\gnome.c     **** #if (GNOME_DEBUGGING_ON == 1)
  21:.\gnome.c     ****     #include <stdio.h>
  22:.\gnome.c     **** #endif
  23:.\gnome.c     **** 
  24:.\gnome.c     **** CY_ISR_PROTO(gnome_process_it);
  25:.\gnome.c     **** 
  26:.\gnome.c     **** void gnome_reset() {
  27:.\gnome.c     ****     
  28:.\gnome.c     ****     // Inicializa contexto normal
  29:.\gnome.c     ****     normal_context.accumulator = 0;
  30:.\gnome.c     ****     normal_context.flags.C = 0;
  31:.\gnome.c     ****     normal_context.flags.Z = 0;
ARM GAS  C:\Users\Javier\AppData\Local\Temp\ccse1tQb.s 			page 2


  32:.\gnome.c     ****     normal_context.ind_addr_reg.data = 0;
  33:.\gnome.c     ****     normal_context.ind_addr_reg.ptr = 0;
  34:.\gnome.c     ****     normal_context.PC = GNOME_RESET_VECTOR;
  35:.\gnome.c     ****     normal_context.stack.ptr = 0;
  36:.\gnome.c     ****     
  37:.\gnome.c     ****     int i = 0;
  38:.\gnome.c     ****     for (i = 0; i < GNOME_STACK_SIZE; i++) {
  39:.\gnome.c     ****         normal_context.stack.data[i] = 0;
  40:.\gnome.c     ****     }
  41:.\gnome.c     ****     
  42:.\gnome.c     ****     // Inicializa contexto interrupción
  43:.\gnome.c     ****     it_context.accumulator = 0;
  44:.\gnome.c     ****     it_context.flags.C = 0;
  45:.\gnome.c     ****     it_context.flags.Z = 0;
  46:.\gnome.c     ****     it_context.ind_addr_reg.data = 0;
  47:.\gnome.c     ****     it_context.ind_addr_reg.ptr = 0;
  48:.\gnome.c     ****     it_context.PC = GNOME_IT_VECTOR;
  49:.\gnome.c     ****     it_context.stack.ptr = 0;
  50:.\gnome.c     ****     
  51:.\gnome.c     ****     for (i = 0; i < GNOME_STACK_SIZE; i++) {
  52:.\gnome.c     ****         it_context.stack.data[i] = 0;
  53:.\gnome.c     ****     }
  54:.\gnome.c     ****     
  55:.\gnome.c     ****     // Inicializa puertos de memoria
  56:.\gnome.c     ****     via_state.port0_ptr = 0;
  57:.\gnome.c     ****     via_state.port1_ptr = 0;
  58:.\gnome.c     ****     
  59:.\gnome.c     ****     // Asignamos el contexto de ejecución
  60:.\gnome.c     ****     current_context = &normal_context;
  61:.\gnome.c     ****     
  62:.\gnome.c     ****     // Carga la memoria de programa desde la EEPROM en RAM
  63:.\gnome.c     ****     for(i = 0; i < 256; i++) {
  64:.\gnome.c     ****         rom[i] = EEPROM_ReadByte(i);
  65:.\gnome.c     ****     }
  66:.\gnome.c     **** }
  67:.\gnome.c     **** 
  68:.\gnome.c     **** void gnome_start() {
  69:.\gnome.c     ****         
  70:.\gnome.c     ****     // Inicializa la UART
  71:.\gnome.c     ****     #if (GNOME_DEBUGGING_ON == 1)
  72:.\gnome.c     ****         UART_Start();
  73:.\gnome.c     ****     #endif
  74:.\gnome.c     ****     
  75:.\gnome.c     ****     // Se realiza la lectura de los códigos de operacion a ejecutar desde la EEPROM.
  76:.\gnome.c     ****     // Inicializa EEPROM
  77:.\gnome.c     ****     EEPROM_Start();
  78:.\gnome.c     **** 
  79:.\gnome.c     ****     // Reset del micro
  80:.\gnome.c     ****     gnome_reset();
  81:.\gnome.c     ****     
  82:.\gnome.c     ****     #if (GNOME_DEBUGGING_ON == 1) 
  83:.\gnome.c     ****         UART_PutString("//////////////////////////////////////\n");
  84:.\gnome.c     ****         UART_PutString("//---- GNOME DEBUGGING TERMINAL ----//\n");
  85:.\gnome.c     ****         UART_PutString("//////////////////////////////////////\n");
  86:.\gnome.c     ****         char str[40];
  87:.\gnome.c     ****         if (current_context == &normal_context) 
  88:.\gnome.c     ****             UART_PutString("\tNormal Context\n");
ARM GAS  C:\Users\Javier\AppData\Local\Temp\ccse1tQb.s 			page 3


  89:.\gnome.c     ****         else
  90:.\gnome.c     ****             UART_PutString("\tIT Context\n");
  91:.\gnome.c     ****             
  92:.\gnome.c     ****         sprintf(str, "\tPC = 0x%02x\n", current_context->PC);
  93:.\gnome.c     ****         UART_PutString(str);
  94:.\gnome.c     ****         sprintf(str, "\tAcc Va= 0x%02x\n", current_context->accumulator);
  95:.\gnome.c     ****         UART_PutString(str);
  96:.\gnome.c     ****         sprintf(str, "\tC, Z = %d, %d\n", current_context->flags.C, current_context->flags.Z);
  97:.\gnome.c     ****         UART_PutString(str);
  98:.\gnome.c     ****         sprintf(str, "\tIND_ADDR_REG =  0x%02x\n", current_context->ind_addr_reg.data);
  99:.\gnome.c     ****         UART_PutString(str);
 100:.\gnome.c     ****         
 101:.\gnome.c     ****         int i = 0;
 102:.\gnome.c     ****         for (i = 0; i < 16; i++) {
 103:.\gnome.c     ****             sprintf(str, "\tREG[%d] = 0x%02x\n", i, gnome_debug_load_reg(i));
 104:.\gnome.c     ****             UART_PutString(str);
 105:.\gnome.c     ****         }
 106:.\gnome.c     ****         UART_PutString("\n\n");
 107:.\gnome.c     ****     #endif
 108:.\gnome.c     ****     
 109:.\gnome.c     ****     // Configure interrupt
 110:.\gnome.c     ****     ISR_StartEx(gnome_process_it);
 111:.\gnome.c     ****     
 112:.\gnome.c     ****     // Config LCD
 113:.\gnome.c     ****     setup_lcd(&lcd);
 114:.\gnome.c     ****     
 115:.\gnome.c     ****     // Set CLK pointer
 116:.\gnome.c     ****     reg8 *clk = GNOME_VIA_GNOME_CLK_ADDR;
 117:.\gnome.c     ****     while(1) {
 118:.\gnome.c     ****         
 119:.\gnome.c     ****         CyGlobalIntDisable;
 120:.\gnome.c     ****         *clk = 1;
 121:.\gnome.c     ****         // Fetch Instruction & Increment PC
 122:.\gnome.c     ****         uint8_t code = rom[current_context->PC & 0xFF]; 
 123:.\gnome.c     ****         current_context->PC++;
 124:.\gnome.c     ****         *clk = 0;
 125:.\gnome.c     ****         *clk = 1;
 126:.\gnome.c     ****         // Decode Instruction
 127:.\gnome.c     ****         inst_enum inst = decodeInstruction(code);
 128:.\gnome.c     ****         *clk = 0;
 129:.\gnome.c     ****         *clk = 1;
 130:.\gnome.c     ****         // Execute instruction
 131:.\gnome.c     ****         exectute(inst, code);
 132:.\gnome.c     ****         *clk = 0;
 133:.\gnome.c     ****         #if(GNOME_DEBUGGING_ON==1) 
 134:.\gnome.c     ****             char str[40];
 135:.\gnome.c     ****             if (current_context == &normal_context) 
 136:.\gnome.c     ****                 UART_PutString("\tNormal Context\n");
 137:.\gnome.c     ****             else
 138:.\gnome.c     ****                 UART_PutString("\tIT Context\n");
 139:.\gnome.c     ****                 
 140:.\gnome.c     ****             sprintf(str, "\tPC = 0x%02x\n", current_context->PC);
 141:.\gnome.c     ****             UART_PutString(str);
 142:.\gnome.c     ****             sprintf(str, "\tAcc = 0x%02x\n", current_context->accumulator);
 143:.\gnome.c     ****             UART_PutString(str);
 144:.\gnome.c     ****             sprintf(str, "\tC, Z = %d, %d\n", current_context->flags.C, current_context->flags.Z);
 145:.\gnome.c     ****             UART_PutString(str);
ARM GAS  C:\Users\Javier\AppData\Local\Temp\ccse1tQb.s 			page 4


 146:.\gnome.c     ****             sprintf(str, "\tIND_ADDR_REG =  0x%02x\n", current_context->ind_addr_reg.data);
 147:.\gnome.c     ****             UART_PutString(str);
 148:.\gnome.c     ****             
 149:.\gnome.c     ****             int i = 0;
 150:.\gnome.c     ****             for (i = 0; i < 16; i++) {
 151:.\gnome.c     ****                 sprintf(str, "\tREG[%d] = 0x%02x\n", i, gnome_debug_load_reg(i));
 152:.\gnome.c     ****                 UART_PutString(str);
 153:.\gnome.c     ****             }
 154:.\gnome.c     ****             UART_PutString("\n");
 155:.\gnome.c     ****             for (i = 0; i < GNOME_STACK_SIZE; i++) {
 156:.\gnome.c     ****                 uint8_t addr = current_context->stack.ptr - i;
 157:.\gnome.c     ****                 if (addr >= GNOME_STACK_SIZE) addr += GNOME_STACK_SIZE;
 158:.\gnome.c     ****                 sprintf(str, "\tSTACK[%d] = 0x%02x\n", i, current_context->stack.data[addr]);
 159:.\gnome.c     ****                 UART_PutString(str);
 160:.\gnome.c     ****             }
 161:.\gnome.c     ****             sprintf(str, "\tSTACK_PTR = 0x%02x\n", current_context->stack.ptr);
 162:.\gnome.c     ****             UART_PutString(str);
 163:.\gnome.c     ****             
 164:.\gnome.c     ****             UART_PutString("\n\n");
 165:.\gnome.c     ****             
 166:.\gnome.c     ****             CyDelay(GNOME_DEBUGGING_PERIOD);
 167:.\gnome.c     ****         #endif
 168:.\gnome.c     ****         
 169:.\gnome.c     ****         // Habilitar interrupciones entre instrucciones
 170:.\gnome.c     ****         CYGlobalIntEnable;
 171:.\gnome.c     ****         
 172:.\gnome.c     ****         if (lcd_update) update_lcd(&lcd);
 173:.\gnome.c     ****     }
 174:.\gnome.c     **** }
 175:.\gnome.c     **** 
 176:.\gnome.c     **** CY_ISR(gnome_process_it){
  27              		.loc 1 176 0
  28              		.cfi_startproc
  29              		@ args = 0, pretend = 0, frame = 0
  30              		@ frame_needed = 0, uses_anonymous_args = 0
  31              		@ link register save eliminated.
 177:.\gnome.c     ****     if (current_context != &it_context) {
  32              		.loc 1 177 0
  33 0000 044B     		ldr	r3, .L3
  34 0002 1A68     		ldr	r2, [r3]
  35 0004 044B     		ldr	r3, .L3+4
  36 0006 9A42     		cmp	r2, r3
  37 0008 03D0     		beq	.L1
 178:.\gnome.c     ****         current_context = &it_context;
  38              		.loc 1 178 0
  39 000a 024A     		ldr	r2, .L3
  40 000c 1360     		str	r3, [r2]
 179:.\gnome.c     ****         
 180:.\gnome.c     ****         // Configuracion del vector de interrupcion.
 181:.\gnome.c     ****         current_context->PC = GNOME_IT_VECTOR;
  41              		.loc 1 181 0
  42 000e E022     		movs	r2, #224
  43 0010 DA70     		strb	r2, [r3, #3]
  44              	.L1:
  45 0012 7047     		bx	lr
  46              	.L4:
  47              		.align	2
ARM GAS  C:\Users\Javier\AppData\Local\Temp\ccse1tQb.s 			page 5


  48              	.L3:
  49 0014 00000000 		.word	current_context
  50 0018 00000000 		.word	it_context
  51              		.cfi_endproc
  52              	.LFE65:
  53              		.size	gnome_process_it, .-gnome_process_it
  54              		.section	.text.gnome_reset,"ax",%progbits
  55              		.align	2
  56              		.global	gnome_reset
  57              		.thumb
  58              		.thumb_func
  59              		.type	gnome_reset, %function
  60              	gnome_reset:
  61              	.LFB63:
  26:.\gnome.c     ****     
  62              		.loc 1 26 0
  63              		.cfi_startproc
  64              		@ args = 0, pretend = 0, frame = 0
  65              		@ frame_needed = 0, uses_anonymous_args = 0
  29:.\gnome.c     ****     normal_context.flags.C = 0;
  66              		.loc 1 29 0
  67 0000 1A4A     		ldr	r2, .L13
  68 0002 0023     		movs	r3, #0
  69 0004 1370     		strb	r3, [r2]
  30:.\gnome.c     ****     normal_context.flags.Z = 0;
  70              		.loc 1 30 0
  71 0006 5370     		strb	r3, [r2, #1]
  31:.\gnome.c     ****     normal_context.ind_addr_reg.data = 0;
  72              		.loc 1 31 0
  73 0008 9370     		strb	r3, [r2, #2]
  32:.\gnome.c     ****     normal_context.ind_addr_reg.ptr = 0;
  74              		.loc 1 32 0
  75 000a 5372     		strb	r3, [r2, #9]
  33:.\gnome.c     ****     normal_context.PC = GNOME_RESET_VECTOR;
  76              		.loc 1 33 0
  77 000c 9372     		strb	r3, [r2, #10]
  34:.\gnome.c     ****     normal_context.stack.ptr = 0;
  78              		.loc 1 34 0
  79 000e D370     		strb	r3, [r2, #3]
  35:.\gnome.c     ****     
  80              		.loc 1 35 0
  81 0010 1372     		strb	r3, [r2, #8]
  82              	.LVL0:
  38:.\gnome.c     ****         normal_context.stack.data[i] = 0;
  83              		.loc 1 38 0
  84 0012 04E0     		b	.L6
  85              	.LVL1:
  86              	.L7:
  39:.\gnome.c     ****     }
  87              		.loc 1 39 0 discriminator 3
  88 0014 154A     		ldr	r2, .L13
  89 0016 1A44     		add	r2, r2, r3
  90 0018 0021     		movs	r1, #0
  91 001a 1171     		strb	r1, [r2, #4]
  38:.\gnome.c     ****         normal_context.stack.data[i] = 0;
  92              		.loc 1 38 0 discriminator 3
  93 001c 0133     		adds	r3, r3, #1
ARM GAS  C:\Users\Javier\AppData\Local\Temp\ccse1tQb.s 			page 6


  94              	.LVL2:
  95              	.L6:
  38:.\gnome.c     ****         normal_context.stack.data[i] = 0;
  96              		.loc 1 38 0 is_stmt 0 discriminator 1
  97 001e 032B     		cmp	r3, #3
  98 0020 F8DD     		ble	.L7
  43:.\gnome.c     ****     it_context.flags.C = 0;
  99              		.loc 1 43 0 is_stmt 1
 100 0022 134A     		ldr	r2, .L13+4
 101 0024 0023     		movs	r3, #0
 102              	.LVL3:
 103 0026 1370     		strb	r3, [r2]
  44:.\gnome.c     ****     it_context.flags.Z = 0;
 104              		.loc 1 44 0
 105 0028 5370     		strb	r3, [r2, #1]
  45:.\gnome.c     ****     it_context.ind_addr_reg.data = 0;
 106              		.loc 1 45 0
 107 002a 9370     		strb	r3, [r2, #2]
  46:.\gnome.c     ****     it_context.ind_addr_reg.ptr = 0;
 108              		.loc 1 46 0
 109 002c 5372     		strb	r3, [r2, #9]
  47:.\gnome.c     ****     it_context.PC = GNOME_IT_VECTOR;
 110              		.loc 1 47 0
 111 002e 9372     		strb	r3, [r2, #10]
  48:.\gnome.c     ****     it_context.stack.ptr = 0;
 112              		.loc 1 48 0
 113 0030 E021     		movs	r1, #224
 114 0032 D170     		strb	r1, [r2, #3]
  49:.\gnome.c     ****     
 115              		.loc 1 49 0
 116 0034 1372     		strb	r3, [r2, #8]
 117              	.LVL4:
  51:.\gnome.c     ****         it_context.stack.data[i] = 0;
 118              		.loc 1 51 0
 119 0036 04E0     		b	.L8
 120              	.LVL5:
 121              	.L9:
  52:.\gnome.c     ****     }
 122              		.loc 1 52 0 discriminator 3
 123 0038 0D4A     		ldr	r2, .L13+4
 124 003a 1A44     		add	r2, r2, r3
 125 003c 0021     		movs	r1, #0
 126 003e 1171     		strb	r1, [r2, #4]
  51:.\gnome.c     ****         it_context.stack.data[i] = 0;
 127              		.loc 1 51 0 discriminator 3
 128 0040 0133     		adds	r3, r3, #1
 129              	.LVL6:
 130              	.L8:
  51:.\gnome.c     ****         it_context.stack.data[i] = 0;
 131              		.loc 1 51 0 is_stmt 0 discriminator 1
 132 0042 032B     		cmp	r3, #3
 133 0044 F8DD     		ble	.L9
  26:.\gnome.c     ****     
 134              		.loc 1 26 0 is_stmt 1
 135 0046 10B5     		push	{r4, lr}
 136              		.cfi_def_cfa_offset 8
 137              		.cfi_offset 4, -8
ARM GAS  C:\Users\Javier\AppData\Local\Temp\ccse1tQb.s 			page 7


 138              		.cfi_offset 14, -4
  56:.\gnome.c     ****     via_state.port1_ptr = 0;
 139              		.loc 1 56 0
 140 0048 0A4B     		ldr	r3, .L13+8
 141              	.LVL7:
 142 004a 0024     		movs	r4, #0
 143 004c 5C70     		strb	r4, [r3, #1]
  57:.\gnome.c     ****     
 144              		.loc 1 57 0
 145 004e 9C70     		strb	r4, [r3, #2]
  60:.\gnome.c     ****     
 146              		.loc 1 60 0
 147 0050 064A     		ldr	r2, .L13
 148 0052 094B     		ldr	r3, .L13+12
 149 0054 1A60     		str	r2, [r3]
 150              	.LVL8:
  63:.\gnome.c     ****         rom[i] = EEPROM_ReadByte(i);
 151              		.loc 1 63 0
 152 0056 05E0     		b	.L10
 153              	.LVL9:
 154              	.L11:
  64:.\gnome.c     ****     }
 155              		.loc 1 64 0 discriminator 3
 156 0058 A0B2     		uxth	r0, r4
 157 005a FFF7FEFF 		bl	EEPROM_ReadByte
 158              	.LVL10:
 159 005e 074B     		ldr	r3, .L13+16
 160 0060 1855     		strb	r0, [r3, r4]
  63:.\gnome.c     ****         rom[i] = EEPROM_ReadByte(i);
 161              		.loc 1 63 0 discriminator 3
 162 0062 0134     		adds	r4, r4, #1
 163              	.LVL11:
 164              	.L10:
  63:.\gnome.c     ****         rom[i] = EEPROM_ReadByte(i);
 165              		.loc 1 63 0 is_stmt 0 discriminator 1
 166 0064 FF2C     		cmp	r4, #255
 167 0066 F7DD     		ble	.L11
  66:.\gnome.c     **** 
 168              		.loc 1 66 0 is_stmt 1
 169 0068 10BD     		pop	{r4, pc}
 170              	.LVL12:
 171              	.L14:
 172 006a 00BF     		.align	2
 173              	.L13:
 174 006c 00000000 		.word	normal_context
 175 0070 00000000 		.word	it_context
 176 0074 00000000 		.word	via_state
 177 0078 00000000 		.word	current_context
 178 007c 00000000 		.word	rom
 179              		.cfi_endproc
 180              	.LFE63:
 181              		.size	gnome_reset, .-gnome_reset
 182              		.section	.text.gnome_start,"ax",%progbits
 183              		.align	2
 184              		.global	gnome_start
 185              		.thumb
 186              		.thumb_func
ARM GAS  C:\Users\Javier\AppData\Local\Temp\ccse1tQb.s 			page 8


 187              		.type	gnome_start, %function
 188              	gnome_start:
 189              	.LFB64:
  68:.\gnome.c     ****         
 190              		.loc 1 68 0
 191              		.cfi_startproc
 192              		@ args = 0, pretend = 0, frame = 0
 193              		@ frame_needed = 0, uses_anonymous_args = 0
 194 0000 F8B5     		push	{r3, r4, r5, r6, r7, lr}
 195              		.cfi_def_cfa_offset 24
 196              		.cfi_offset 3, -24
 197              		.cfi_offset 4, -20
 198              		.cfi_offset 5, -16
 199              		.cfi_offset 6, -12
 200              		.cfi_offset 7, -8
 201              		.cfi_offset 14, -4
  77:.\gnome.c     **** 
 202              		.loc 1 77 0
 203 0002 FFF7FEFF 		bl	EEPROM_Start
 204              	.LVL13:
  80:.\gnome.c     ****     
 205              		.loc 1 80 0
 206 0006 FFF7FEFF 		bl	gnome_reset
 207              	.LVL14:
 110:.\gnome.c     ****     
 208              		.loc 1 110 0
 209 000a 1348     		ldr	r0, .L19
 210 000c FFF7FEFF 		bl	ISR_StartEx
 211              	.LVL15:
 113:.\gnome.c     ****     
 212              		.loc 1 113 0
 213 0010 1248     		ldr	r0, .L19+4
 214 0012 FFF7FEFF 		bl	setup_lcd
 215              	.LVL16:
 216              	.L16:
 217              	.LBB2:
 119:.\gnome.c     ****         *clk = 1;
 218              		.loc 1 119 0
 219              	@ 119 ".\gnome.c" 1
 220 0016 72B6     		CPSID   i
 221              	@ 0 "" 2
 120:.\gnome.c     ****         // Fetch Instruction & Increment PC
 222              		.loc 1 120 0
 223              		.thumb
 224 0018 114C     		ldr	r4, .L19+8
 225 001a 0126     		movs	r6, #1
 226 001c 2670     		strb	r6, [r4]
 122:.\gnome.c     ****         current_context->PC++;
 227              		.loc 1 122 0
 228 001e 114B     		ldr	r3, .L19+12
 229 0020 1A68     		ldr	r2, [r3]
 230 0022 D378     		ldrb	r3, [r2, #3]	@ zero_extendqisi2
 231 0024 1049     		ldr	r1, .L19+16
 232 0026 CF5C     		ldrb	r7, [r1, r3]	@ zero_extendqisi2
 233              	.LVL17:
 123:.\gnome.c     ****         *clk = 0;
 234              		.loc 1 123 0
ARM GAS  C:\Users\Javier\AppData\Local\Temp\ccse1tQb.s 			page 9


 235 0028 3344     		add	r3, r3, r6
 236 002a D370     		strb	r3, [r2, #3]
 124:.\gnome.c     ****         *clk = 1;
 237              		.loc 1 124 0
 238 002c 0025     		movs	r5, #0
 239 002e 2570     		strb	r5, [r4]
 125:.\gnome.c     ****         // Decode Instruction
 240              		.loc 1 125 0
 241 0030 2670     		strb	r6, [r4]
 127:.\gnome.c     ****         *clk = 0;
 242              		.loc 1 127 0
 243 0032 3846     		mov	r0, r7
 244 0034 FFF7FEFF 		bl	decodeInstruction
 245              	.LVL18:
 128:.\gnome.c     ****         *clk = 1;
 246              		.loc 1 128 0
 247 0038 2570     		strb	r5, [r4]
 129:.\gnome.c     ****         // Execute instruction
 248              		.loc 1 129 0
 249 003a 2670     		strb	r6, [r4]
 131:.\gnome.c     ****         *clk = 0;
 250              		.loc 1 131 0
 251 003c 3946     		mov	r1, r7
 252 003e FFF7FEFF 		bl	exectute
 253              	.LVL19:
 132:.\gnome.c     ****         #if(GNOME_DEBUGGING_ON==1) 
 254              		.loc 1 132 0
 255 0042 2570     		strb	r5, [r4]
 170:.\gnome.c     ****         
 256              		.loc 1 170 0
 257              	@ 170 ".\gnome.c" 1
 258 0044 62B6     		CPSIE   i
 259              	@ 0 "" 2
 172:.\gnome.c     ****     }
 260              		.loc 1 172 0
 261              		.thumb
 262 0046 094B     		ldr	r3, .L19+20
 263 0048 1B78     		ldrb	r3, [r3]	@ zero_extendqisi2
 264 004a 13F0FF0F 		tst	r3, #255
 265 004e E2D0     		beq	.L16
 172:.\gnome.c     ****     }
 266              		.loc 1 172 0 is_stmt 0 discriminator 1
 267 0050 0248     		ldr	r0, .L19+4
 268 0052 FFF7FEFF 		bl	update_lcd
 269              	.LVL20:
 270 0056 DEE7     		b	.L16
 271              	.L20:
 272              		.align	2
 273              	.L19:
 274 0058 00000000 		.word	gnome_process_it
 275 005c 00000000 		.word	lcd
 276 0060 79640040 		.word	1073767545
 277 0064 00000000 		.word	current_context
 278 0068 00000000 		.word	rom
 279 006c 00000000 		.word	lcd_update
 280              	.LBE2:
 281              		.cfi_endproc
ARM GAS  C:\Users\Javier\AppData\Local\Temp\ccse1tQb.s 			page 10


 282              	.LFE64:
 283              		.size	gnome_start, .-gnome_start
 284              		.comm	lcd_update,1,1
 285              		.comm	lcd,134,4
 286              		.comm	via_state,3,4
 287              		.comm	rom,256,4
 288              		.comm	registers,16,4
 289              		.comm	current_context,4,4
 290              		.comm	it_context,11,4
 291              		.comm	normal_context,11,4
 292              		.text
 293              	.Letext0:
 294              		.file 2 "c:\\program files (x86)\\cypress\\psoc creator\\3.3\\psoc creator\\import\\gnu\\arm\\4.9.
 295              		.file 3 "c:\\program files (x86)\\cypress\\psoc creator\\3.3\\psoc creator\\import\\gnu\\arm\\4.9.
 296              		.file 4 "Generated_Source\\PSoC5/cytypes.h"
 297              		.file 5 ".\\gnome_registers.h"
 298              		.file 6 ".\\gnome_memory.h"
 299              		.file 7 ".\\i2cLCD.h"
 300              		.file 8 "Generated_Source\\PSoC5/core_cm3.h"
 301              		.file 9 ".\\gnome_lcd.h"
 302              		.file 10 "Generated_Source\\PSoC5/EEPROM.h"
 303              		.file 11 ".\\gnome_inst_decoder.h"
 304              		.file 12 ".\\gnome_execute.h"
 305              		.file 13 "Generated_Source\\PSoC5/ISR.h"