ARM GAS  C:\Users\Javier\AppData\Local\Temp\ccvAue1c.s 			page 1


   1              		.cpu cortex-m0
   2              		.fpu softvfp
   3              		.eabi_attribute 20, 1
   4              		.eabi_attribute 21, 1
   5              		.eabi_attribute 23, 3
   6              		.eabi_attribute 24, 1
   7              		.eabi_attribute 25, 1
   8              		.eabi_attribute 26, 1
   9              		.eabi_attribute 30, 1
  10              		.eabi_attribute 34, 0
  11              		.eabi_attribute 18, 4
  12              		.code	16
  13              		.file	"cyfitter_cfg.c"
  14              		.text
  15              	.Ltext0:
  16              		.cfi_sections	.debug_frame
  17              		.section	.text.cfg_write_bytes32,"ax",%progbits
  18              		.align	2
  19              		.code	16
  20              		.thumb_func
  21              		.type	cfg_write_bytes32, %function
  22              	cfg_write_bytes32:
  23              	.LFB3:
  24              		.file 1 ".\\Generated_Source\\PSoC4\\cyfitter_cfg.c"
   1:.\Generated_Source\PSoC4/cyfitter_cfg.c **** /*******************************************************************************
   2:.\Generated_Source\PSoC4/cyfitter_cfg.c **** * File Name: cyfitter_cfg.c
   3:.\Generated_Source\PSoC4/cyfitter_cfg.c **** * 
   4:.\Generated_Source\PSoC4/cyfitter_cfg.c **** * PSoC Creator  3.3 SP1
   5:.\Generated_Source\PSoC4/cyfitter_cfg.c **** *
   6:.\Generated_Source\PSoC4/cyfitter_cfg.c **** * Description:
   7:.\Generated_Source\PSoC4/cyfitter_cfg.c **** * This file contains device initialization code.
   8:.\Generated_Source\PSoC4/cyfitter_cfg.c **** * Except for the user defined sections in CyClockStartupError(), this file should not be modified.
   9:.\Generated_Source\PSoC4/cyfitter_cfg.c **** * This file is automatically generated by PSoC Creator.
  10:.\Generated_Source\PSoC4/cyfitter_cfg.c **** *
  11:.\Generated_Source\PSoC4/cyfitter_cfg.c **** ********************************************************************************
  12:.\Generated_Source\PSoC4/cyfitter_cfg.c **** * Copyright (c) 2007-2015 Cypress Semiconductor.  All rights reserved.
  13:.\Generated_Source\PSoC4/cyfitter_cfg.c **** * You may use this file only in accordance with the license, terms, conditions, 
  14:.\Generated_Source\PSoC4/cyfitter_cfg.c **** * disclaimers, and limitations in the end user license agreement accompanying 
  15:.\Generated_Source\PSoC4/cyfitter_cfg.c **** * the software package with which this file was provided.
  16:.\Generated_Source\PSoC4/cyfitter_cfg.c **** ********************************************************************************/
  17:.\Generated_Source\PSoC4/cyfitter_cfg.c **** 
  18:.\Generated_Source\PSoC4/cyfitter_cfg.c **** #include <string.h>
  19:.\Generated_Source\PSoC4/cyfitter_cfg.c **** #include "cytypes.h"
  20:.\Generated_Source\PSoC4/cyfitter_cfg.c **** #include "cydevice_trm.h"
  21:.\Generated_Source\PSoC4/cyfitter_cfg.c **** #include "cyfitter.h"
  22:.\Generated_Source\PSoC4/cyfitter_cfg.c **** #include "CyLib.h"
  23:.\Generated_Source\PSoC4/cyfitter_cfg.c **** #include "CyLFClk.h"
  24:.\Generated_Source\PSoC4/cyfitter_cfg.c **** #include "cyfitter_cfg.h"
  25:.\Generated_Source\PSoC4/cyfitter_cfg.c **** 
  26:.\Generated_Source\PSoC4/cyfitter_cfg.c **** 
  27:.\Generated_Source\PSoC4/cyfitter_cfg.c **** #if defined(__GNUC__) || defined(__ARMCC_VERSION)
  28:.\Generated_Source\PSoC4/cyfitter_cfg.c ****     #define CYPACKED 
  29:.\Generated_Source\PSoC4/cyfitter_cfg.c ****     #define CYPACKED_ATTR __attribute__ ((packed))
  30:.\Generated_Source\PSoC4/cyfitter_cfg.c ****     #define CYALIGNED __attribute__ ((aligned))
  31:.\Generated_Source\PSoC4/cyfitter_cfg.c ****     #define CY_CFG_UNUSED __attribute__ ((unused))
  32:.\Generated_Source\PSoC4/cyfitter_cfg.c ****     #ifndef CY_CFG_SECTION
  33:.\Generated_Source\PSoC4/cyfitter_cfg.c ****         #define CY_CFG_SECTION __attribute__ ((section(".psocinit")))
ARM GAS  C:\Users\Javier\AppData\Local\Temp\ccvAue1c.s 			page 2


  34:.\Generated_Source\PSoC4/cyfitter_cfg.c ****     #endif
  35:.\Generated_Source\PSoC4/cyfitter_cfg.c ****     
  36:.\Generated_Source\PSoC4/cyfitter_cfg.c ****     #if defined(__ARMCC_VERSION)
  37:.\Generated_Source\PSoC4/cyfitter_cfg.c ****         #define CY_CFG_MEMORY_BARRIER() __memory_changed()
  38:.\Generated_Source\PSoC4/cyfitter_cfg.c ****     #else
  39:.\Generated_Source\PSoC4/cyfitter_cfg.c ****         #define CY_CFG_MEMORY_BARRIER() __sync_synchronize()
  40:.\Generated_Source\PSoC4/cyfitter_cfg.c ****     #endif
  41:.\Generated_Source\PSoC4/cyfitter_cfg.c ****     
  42:.\Generated_Source\PSoC4/cyfitter_cfg.c **** #elif defined(__ICCARM__)
  43:.\Generated_Source\PSoC4/cyfitter_cfg.c ****     #include <intrinsics.h>
  44:.\Generated_Source\PSoC4/cyfitter_cfg.c **** 
  45:.\Generated_Source\PSoC4/cyfitter_cfg.c ****     #define CYPACKED __packed
  46:.\Generated_Source\PSoC4/cyfitter_cfg.c ****     #define CYPACKED_ATTR 
  47:.\Generated_Source\PSoC4/cyfitter_cfg.c ****     #define CYALIGNED _Pragma("data_alignment=4")
  48:.\Generated_Source\PSoC4/cyfitter_cfg.c ****     #define CY_CFG_UNUSED _Pragma("diag_suppress=Pe177")
  49:.\Generated_Source\PSoC4/cyfitter_cfg.c ****     #define CY_CFG_SECTION _Pragma("location=\".psocinit\"")
  50:.\Generated_Source\PSoC4/cyfitter_cfg.c ****     
  51:.\Generated_Source\PSoC4/cyfitter_cfg.c ****     #define CY_CFG_MEMORY_BARRIER() __DMB()
  52:.\Generated_Source\PSoC4/cyfitter_cfg.c ****     
  53:.\Generated_Source\PSoC4/cyfitter_cfg.c **** #else
  54:.\Generated_Source\PSoC4/cyfitter_cfg.c ****     #error Unsupported toolchain
  55:.\Generated_Source\PSoC4/cyfitter_cfg.c **** #endif
  56:.\Generated_Source\PSoC4/cyfitter_cfg.c **** 
  57:.\Generated_Source\PSoC4/cyfitter_cfg.c **** 
  58:.\Generated_Source\PSoC4/cyfitter_cfg.c **** CY_CFG_UNUSED
  59:.\Generated_Source\PSoC4/cyfitter_cfg.c **** static void CYMEMZERO(void *s, size_t n);
  60:.\Generated_Source\PSoC4/cyfitter_cfg.c **** CY_CFG_UNUSED
  61:.\Generated_Source\PSoC4/cyfitter_cfg.c **** static void CYMEMZERO(void *s, size_t n)
  62:.\Generated_Source\PSoC4/cyfitter_cfg.c **** {
  63:.\Generated_Source\PSoC4/cyfitter_cfg.c **** 	(void)memset(s, 0, n);
  64:.\Generated_Source\PSoC4/cyfitter_cfg.c **** }
  65:.\Generated_Source\PSoC4/cyfitter_cfg.c **** CY_CFG_UNUSED
  66:.\Generated_Source\PSoC4/cyfitter_cfg.c **** static void CYCONFIGCPY(void *dest, const void *src, size_t n);
  67:.\Generated_Source\PSoC4/cyfitter_cfg.c **** CY_CFG_UNUSED
  68:.\Generated_Source\PSoC4/cyfitter_cfg.c **** static void CYCONFIGCPY(void *dest, const void *src, size_t n)
  69:.\Generated_Source\PSoC4/cyfitter_cfg.c **** {
  70:.\Generated_Source\PSoC4/cyfitter_cfg.c **** 	(void)memcpy(dest, src, n);
  71:.\Generated_Source\PSoC4/cyfitter_cfg.c **** }
  72:.\Generated_Source\PSoC4/cyfitter_cfg.c **** CY_CFG_UNUSED
  73:.\Generated_Source\PSoC4/cyfitter_cfg.c **** static void CYCONFIGCPYCODE(void *dest, const void *src, size_t n);
  74:.\Generated_Source\PSoC4/cyfitter_cfg.c **** CY_CFG_UNUSED
  75:.\Generated_Source\PSoC4/cyfitter_cfg.c **** static void CYCONFIGCPYCODE(void *dest, const void *src, size_t n)
  76:.\Generated_Source\PSoC4/cyfitter_cfg.c **** {
  77:.\Generated_Source\PSoC4/cyfitter_cfg.c **** 	(void)memcpy(dest, src, n);
  78:.\Generated_Source\PSoC4/cyfitter_cfg.c **** }
  79:.\Generated_Source\PSoC4/cyfitter_cfg.c **** 
  80:.\Generated_Source\PSoC4/cyfitter_cfg.c **** 
  81:.\Generated_Source\PSoC4/cyfitter_cfg.c **** 
  82:.\Generated_Source\PSoC4/cyfitter_cfg.c **** /* Clock startup error codes                                                   */
  83:.\Generated_Source\PSoC4/cyfitter_cfg.c **** #define CYCLOCKSTART_NO_ERROR    0u
  84:.\Generated_Source\PSoC4/cyfitter_cfg.c **** #define CYCLOCKSTART_XTAL_ERROR  1u
  85:.\Generated_Source\PSoC4/cyfitter_cfg.c **** #define CYCLOCKSTART_32KHZ_ERROR 2u
  86:.\Generated_Source\PSoC4/cyfitter_cfg.c **** #define CYCLOCKSTART_PLL_ERROR   3u
  87:.\Generated_Source\PSoC4/cyfitter_cfg.c **** 
  88:.\Generated_Source\PSoC4/cyfitter_cfg.c **** #ifdef CY_NEED_CYCLOCKSTARTUPERROR
  89:.\Generated_Source\PSoC4/cyfitter_cfg.c **** /*******************************************************************************
  90:.\Generated_Source\PSoC4/cyfitter_cfg.c **** * Function Name: CyClockStartupError
ARM GAS  C:\Users\Javier\AppData\Local\Temp\ccvAue1c.s 			page 3


  91:.\Generated_Source\PSoC4/cyfitter_cfg.c **** ********************************************************************************
  92:.\Generated_Source\PSoC4/cyfitter_cfg.c **** * Summary:
  93:.\Generated_Source\PSoC4/cyfitter_cfg.c **** *  If an error is encountered during clock configuration (crystal startup error,
  94:.\Generated_Source\PSoC4/cyfitter_cfg.c **** *  PLL lock error, etc.), the system will end up here.  Unless reimplemented by
  95:.\Generated_Source\PSoC4/cyfitter_cfg.c **** *  the customer, this function will stop in an infinite loop.
  96:.\Generated_Source\PSoC4/cyfitter_cfg.c **** *
  97:.\Generated_Source\PSoC4/cyfitter_cfg.c **** * Parameters:
  98:.\Generated_Source\PSoC4/cyfitter_cfg.c **** *   void
  99:.\Generated_Source\PSoC4/cyfitter_cfg.c **** *
 100:.\Generated_Source\PSoC4/cyfitter_cfg.c **** * Return:
 101:.\Generated_Source\PSoC4/cyfitter_cfg.c **** *   void
 102:.\Generated_Source\PSoC4/cyfitter_cfg.c **** *
 103:.\Generated_Source\PSoC4/cyfitter_cfg.c **** *******************************************************************************/
 104:.\Generated_Source\PSoC4/cyfitter_cfg.c **** CY_CFG_UNUSED
 105:.\Generated_Source\PSoC4/cyfitter_cfg.c **** static void CyClockStartupError(uint8 errorCode);
 106:.\Generated_Source\PSoC4/cyfitter_cfg.c **** CY_CFG_UNUSED
 107:.\Generated_Source\PSoC4/cyfitter_cfg.c **** static void CyClockStartupError(uint8 errorCode)
 108:.\Generated_Source\PSoC4/cyfitter_cfg.c **** {
 109:.\Generated_Source\PSoC4/cyfitter_cfg.c ****     /* To remove the compiler warning if errorCode not used.                */
 110:.\Generated_Source\PSoC4/cyfitter_cfg.c ****     errorCode = errorCode;
 111:.\Generated_Source\PSoC4/cyfitter_cfg.c **** 
 112:.\Generated_Source\PSoC4/cyfitter_cfg.c ****     /* `#START CyClockStartupError` */
 113:.\Generated_Source\PSoC4/cyfitter_cfg.c **** 
 114:.\Generated_Source\PSoC4/cyfitter_cfg.c ****     /* If we have a clock startup error (bad MHz crystal, PLL lock, etc.),  */
 115:.\Generated_Source\PSoC4/cyfitter_cfg.c ****     /* we will end up here to allow the customer to implement something to  */
 116:.\Generated_Source\PSoC4/cyfitter_cfg.c ****     /* deal with the clock condition.                                       */
 117:.\Generated_Source\PSoC4/cyfitter_cfg.c **** 
 118:.\Generated_Source\PSoC4/cyfitter_cfg.c ****     /* `#END` */
 119:.\Generated_Source\PSoC4/cyfitter_cfg.c **** 
 120:.\Generated_Source\PSoC4/cyfitter_cfg.c ****     /* If nothing else, stop here since the clocks have not started         */
 121:.\Generated_Source\PSoC4/cyfitter_cfg.c ****     /* correctly.                                                           */
 122:.\Generated_Source\PSoC4/cyfitter_cfg.c ****     while(1) {}
 123:.\Generated_Source\PSoC4/cyfitter_cfg.c **** }
 124:.\Generated_Source\PSoC4/cyfitter_cfg.c **** #endif
 125:.\Generated_Source\PSoC4/cyfitter_cfg.c **** 
 126:.\Generated_Source\PSoC4/cyfitter_cfg.c **** #define CY_CFG_BASE_ADDR_COUNT 6u
 127:.\Generated_Source\PSoC4/cyfitter_cfg.c **** CYPACKED typedef struct
 128:.\Generated_Source\PSoC4/cyfitter_cfg.c **** {
 129:.\Generated_Source\PSoC4/cyfitter_cfg.c **** 	uint8 offset;
 130:.\Generated_Source\PSoC4/cyfitter_cfg.c **** 	uint8 value;
 131:.\Generated_Source\PSoC4/cyfitter_cfg.c **** } CYPACKED_ATTR cy_cfg_addrvalue_t;
 132:.\Generated_Source\PSoC4/cyfitter_cfg.c **** 
 133:.\Generated_Source\PSoC4/cyfitter_cfg.c **** 
 134:.\Generated_Source\PSoC4/cyfitter_cfg.c **** 
 135:.\Generated_Source\PSoC4/cyfitter_cfg.c **** /*******************************************************************************
 136:.\Generated_Source\PSoC4/cyfitter_cfg.c **** * Function Name: cfg_write_bytes32
 137:.\Generated_Source\PSoC4/cyfitter_cfg.c **** ********************************************************************************
 138:.\Generated_Source\PSoC4/cyfitter_cfg.c **** * Summary:
 139:.\Generated_Source\PSoC4/cyfitter_cfg.c **** *  This function is used for setting up the chip configuration areas that
 140:.\Generated_Source\PSoC4/cyfitter_cfg.c **** *  contain relatively sparse data.
 141:.\Generated_Source\PSoC4/cyfitter_cfg.c **** *
 142:.\Generated_Source\PSoC4/cyfitter_cfg.c **** * Parameters:
 143:.\Generated_Source\PSoC4/cyfitter_cfg.c **** *   void
 144:.\Generated_Source\PSoC4/cyfitter_cfg.c **** *
 145:.\Generated_Source\PSoC4/cyfitter_cfg.c **** * Return:
 146:.\Generated_Source\PSoC4/cyfitter_cfg.c **** *   void
 147:.\Generated_Source\PSoC4/cyfitter_cfg.c **** *
ARM GAS  C:\Users\Javier\AppData\Local\Temp\ccvAue1c.s 			page 4


 148:.\Generated_Source\PSoC4/cyfitter_cfg.c **** *******************************************************************************/
 149:.\Generated_Source\PSoC4/cyfitter_cfg.c **** static void cfg_write_bytes32(const uint32 addr_table[], const cy_cfg_addrvalue_t data_table[]);
 150:.\Generated_Source\PSoC4/cyfitter_cfg.c **** static void cfg_write_bytes32(const uint32 addr_table[], const cy_cfg_addrvalue_t data_table[])
 151:.\Generated_Source\PSoC4/cyfitter_cfg.c **** {
  25              		.loc 1 151 0
  26              		.cfi_startproc
  27              	.LVL0:
  28 0000 F0B5     		push	{r4, r5, r6, r7, lr}
  29              		.cfi_def_cfa_offset 20
  30              		.cfi_offset 4, -20
  31              		.cfi_offset 5, -16
  32              		.cfi_offset 6, -12
  33              		.cfi_offset 7, -8
  34              		.cfi_offset 14, -4
  35              	.LVL1:
 152:.\Generated_Source\PSoC4/cyfitter_cfg.c **** 	/* For 32-bit little-endian architectures */
 153:.\Generated_Source\PSoC4/cyfitter_cfg.c **** 	uint32 i, j = 0u;
  36              		.loc 1 153 0
  37 0002 0025     		mov	r5, #0
 154:.\Generated_Source\PSoC4/cyfitter_cfg.c **** 	for (i = 0u; i < CY_CFG_BASE_ADDR_COUNT; i++)
  38              		.loc 1 154 0
  39 0004 0027     		mov	r7, #0
  40 0006 11E0     		b	.L2
  41              	.LVL2:
  42              	.L5:
  43              	.LBB2:
 155:.\Generated_Source\PSoC4/cyfitter_cfg.c **** 	{
 156:.\Generated_Source\PSoC4/cyfitter_cfg.c **** 		uint32 baseAddr = addr_table[i];
  44              		.loc 1 156 0
  45 0008 BB00     		lsl	r3, r7, #2
  46 000a C658     		ldr	r6, [r0, r3]
  47              	.LVL3:
 157:.\Generated_Source\PSoC4/cyfitter_cfg.c **** 		uint8 count = (uint8)baseAddr;
  48              		.loc 1 157 0
  49 000c F3B2     		uxtb	r3, r6
  50              	.LVL4:
 158:.\Generated_Source\PSoC4/cyfitter_cfg.c **** 		baseAddr &= 0xFFFFFF00u;
  51              		.loc 1 158 0
  52 000e FF22     		mov	r2, #255
  53 0010 9643     		bic	r6, r2
  54              	.LVL5:
 159:.\Generated_Source\PSoC4/cyfitter_cfg.c **** 		while (count != 0u)
  55              		.loc 1 159 0
  56 0012 08E0     		b	.L3
  57              	.L4:
 160:.\Generated_Source\PSoC4/cyfitter_cfg.c **** 		{
 161:.\Generated_Source\PSoC4/cyfitter_cfg.c **** 			CY_SET_XTND_REG8((void CYFAR *)(baseAddr + data_table[j].offset), data_table[j].value);
  58              		.loc 1 161 0
  59 0014 6A00     		lsl	r2, r5, #1
  60 0016 8A18     		add	r2, r1, r2
  61 0018 1478     		ldrb	r4, [r2]
  62 001a A419     		add	r4, r4, r6
  63 001c 5278     		ldrb	r2, [r2, #1]
  64 001e 2270     		strb	r2, [r4]
 162:.\Generated_Source\PSoC4/cyfitter_cfg.c **** 			j++;
  65              		.loc 1 162 0
  66 0020 0135     		add	r5, r5, #1
ARM GAS  C:\Users\Javier\AppData\Local\Temp\ccvAue1c.s 			page 5


  67              	.LVL6:
 163:.\Generated_Source\PSoC4/cyfitter_cfg.c **** 			count--;
  68              		.loc 1 163 0
  69 0022 013B     		sub	r3, r3, #1
  70              	.LVL7:
  71 0024 DBB2     		uxtb	r3, r3
  72              	.LVL8:
  73              	.L3:
 159:.\Generated_Source\PSoC4/cyfitter_cfg.c **** 		{
  74              		.loc 1 159 0
  75 0026 002B     		cmp	r3, #0
  76 0028 F4D1     		bne	.L4
  77              	.LBE2:
 154:.\Generated_Source\PSoC4/cyfitter_cfg.c **** 	{
  78              		.loc 1 154 0 discriminator 2
  79 002a 0137     		add	r7, r7, #1
  80              	.LVL9:
  81              	.L2:
 154:.\Generated_Source\PSoC4/cyfitter_cfg.c **** 	{
  82              		.loc 1 154 0 is_stmt 0 discriminator 1
  83 002c 052F     		cmp	r7, #5
  84 002e EBD9     		bls	.L5
 164:.\Generated_Source\PSoC4/cyfitter_cfg.c **** 		}
 165:.\Generated_Source\PSoC4/cyfitter_cfg.c **** 	}
 166:.\Generated_Source\PSoC4/cyfitter_cfg.c **** }
  85              		.loc 1 166 0 is_stmt 1
  86              		@ sp needed
  87              	.LVL10:
  88              	.LVL11:
  89 0030 F0BD     		pop	{r4, r5, r6, r7, pc}
  90              		.cfi_endproc
  91              	.LFE3:
  92              		.size	cfg_write_bytes32, .-cfg_write_bytes32
  93 0032 C046     		.section	.text.CYMEMZERO,"ax",%progbits
  94              		.align	2
  95              		.code	16
  96              		.thumb_func
  97              		.type	CYMEMZERO, %function
  98              	CYMEMZERO:
  99              	.LFB0:
  62:.\Generated_Source\PSoC4/cyfitter_cfg.c **** 	(void)memset(s, 0, n);
 100              		.loc 1 62 0
 101              		.cfi_startproc
 102              	.LVL12:
 103 0000 08B5     		push	{r3, lr}
 104              		.cfi_def_cfa_offset 8
 105              		.cfi_offset 3, -8
 106              		.cfi_offset 14, -4
 107 0002 0A1C     		mov	r2, r1
  63:.\Generated_Source\PSoC4/cyfitter_cfg.c **** }
 108              		.loc 1 63 0
 109 0004 0021     		mov	r1, #0
 110              	.LVL13:
 111 0006 FFF7FEFF 		bl	memset
 112              	.LVL14:
  64:.\Generated_Source\PSoC4/cyfitter_cfg.c **** CY_CFG_UNUSED
 113              		.loc 1 64 0
ARM GAS  C:\Users\Javier\AppData\Local\Temp\ccvAue1c.s 			page 6


 114              		@ sp needed
 115 000a 08BD     		pop	{r3, pc}
 116              		.cfi_endproc
 117              	.LFE0:
 118              		.size	CYMEMZERO, .-CYMEMZERO
 119              		.section	.psocinit,"ax",%progbits
 120              		.align	2
 121              		.code	16
 122              		.thumb_func
 123              		.type	ClockSetup, %function
 124              	ClockSetup:
 125              	.LFB4:
 167:.\Generated_Source\PSoC4/cyfitter_cfg.c **** 
 168:.\Generated_Source\PSoC4/cyfitter_cfg.c **** 
 169:.\Generated_Source\PSoC4/cyfitter_cfg.c **** /*******************************************************************************
 170:.\Generated_Source\PSoC4/cyfitter_cfg.c **** * Function Name: ClockSetup
 171:.\Generated_Source\PSoC4/cyfitter_cfg.c **** ********************************************************************************
 172:.\Generated_Source\PSoC4/cyfitter_cfg.c **** *
 173:.\Generated_Source\PSoC4/cyfitter_cfg.c **** * Summary:
 174:.\Generated_Source\PSoC4/cyfitter_cfg.c **** *   Performs the initialization of all of the clocks in the device based on the
 175:.\Generated_Source\PSoC4/cyfitter_cfg.c **** *   settings in the Clock tab of the DWR.  This includes enabling the requested
 176:.\Generated_Source\PSoC4/cyfitter_cfg.c **** *   clocks and setting the necessary dividers to produce the desired frequency. 
 177:.\Generated_Source\PSoC4/cyfitter_cfg.c **** *
 178:.\Generated_Source\PSoC4/cyfitter_cfg.c **** * Parameters:
 179:.\Generated_Source\PSoC4/cyfitter_cfg.c **** *   void
 180:.\Generated_Source\PSoC4/cyfitter_cfg.c **** *
 181:.\Generated_Source\PSoC4/cyfitter_cfg.c **** * Return:
 182:.\Generated_Source\PSoC4/cyfitter_cfg.c **** *   void
 183:.\Generated_Source\PSoC4/cyfitter_cfg.c **** *
 184:.\Generated_Source\PSoC4/cyfitter_cfg.c **** *******************************************************************************/
 185:.\Generated_Source\PSoC4/cyfitter_cfg.c **** static void ClockSetup(void);
 186:.\Generated_Source\PSoC4/cyfitter_cfg.c **** CY_CFG_SECTION
 187:.\Generated_Source\PSoC4/cyfitter_cfg.c **** static void ClockSetup(void)
 188:.\Generated_Source\PSoC4/cyfitter_cfg.c **** {
 126              		.loc 1 188 0
 127              		.cfi_startproc
 128 0000 38B5     		push	{r3, r4, r5, lr}
 129              		.cfi_def_cfa_offset 16
 130              		.cfi_offset 3, -16
 131              		.cfi_offset 4, -12
 132              		.cfi_offset 5, -8
 133              		.cfi_offset 14, -4
 189:.\Generated_Source\PSoC4/cyfitter_cfg.c **** 	/* Enable HALF_EN before trimming for the flash accelerator. */
 190:.\Generated_Source\PSoC4/cyfitter_cfg.c **** 	CY_SET_REG32((void CYXDATA *)(CYREG_CLK_SELECT), (CY_GET_REG32((void *)CYREG_CLK_SELECT) | 0x00040
 134              		.loc 1 190 0
 135 0002 0F4C     		ldr	r4, .L8
 136 0004 2368     		ldr	r3, [r4]
 137 0006 8022     		mov	r2, #128
 138 0008 D202     		lsl	r2, r2, #11
 139 000a 1343     		orr	r3, r2
 140 000c 2360     		str	r3, [r4]
 191:.\Generated_Source\PSoC4/cyfitter_cfg.c **** 
 192:.\Generated_Source\PSoC4/cyfitter_cfg.c **** 	/* Setup and trim IMO based on desired frequency. */
 193:.\Generated_Source\PSoC4/cyfitter_cfg.c **** 	CySysClkWriteImoFreq(24u);
 141              		.loc 1 193 0
 142 000e 1820     		mov	r0, #24
 143 0010 FFF7FEFF 		bl	CySysClkWriteImoFreq
ARM GAS  C:\Users\Javier\AppData\Local\Temp\ccvAue1c.s 			page 7


 144              	.LVL15:
 194:.\Generated_Source\PSoC4/cyfitter_cfg.c **** 
 195:.\Generated_Source\PSoC4/cyfitter_cfg.c **** 	/* Disable HALF_EN since it is not required at this IMO frequency. */
 196:.\Generated_Source\PSoC4/cyfitter_cfg.c **** 	CY_SET_REG32((void CYXDATA *)(CYREG_CLK_SELECT), (CY_GET_REG32((void *)CYREG_CLK_SELECT) & 0xFFFBF
 145              		.loc 1 196 0
 146 0014 2268     		ldr	r2, [r4]
 147 0016 0B4B     		ldr	r3, .L8+4
 148 0018 1340     		and	r3, r2
 149 001a 2360     		str	r3, [r4]
 197:.\Generated_Source\PSoC4/cyfitter_cfg.c **** 	/* CYDEV_CLK_ILO_CONFIG Starting address: CYDEV_CLK_ILO_CONFIG */
 198:.\Generated_Source\PSoC4/cyfitter_cfg.c **** 	CY_SET_XTND_REG32((void CYFAR *)(CYREG_CLK_ILO_CONFIG), 0x80000006u);
 150              		.loc 1 198 0
 151 001c 0A4A     		ldr	r2, .L8+8
 152 001e 0B4B     		ldr	r3, .L8+12
 153 0020 1A60     		str	r2, [r3]
 199:.\Generated_Source\PSoC4/cyfitter_cfg.c **** 
 200:.\Generated_Source\PSoC4/cyfitter_cfg.c **** 
 201:.\Generated_Source\PSoC4/cyfitter_cfg.c **** 	/* CYDEV_CLK_IMO_CONFIG Starting address: CYDEV_CLK_IMO_CONFIG */
 202:.\Generated_Source\PSoC4/cyfitter_cfg.c **** 	CY_SET_XTND_REG32((void CYFAR *)(CYREG_CLK_IMO_CONFIG), 0x80000000u);
 154              		.loc 1 202 0
 155 0022 063A     		sub	r2, r2, #6
 156 0024 0A4B     		ldr	r3, .L8+16
 157 0026 1A60     		str	r2, [r3]
 203:.\Generated_Source\PSoC4/cyfitter_cfg.c **** 
 204:.\Generated_Source\PSoC4/cyfitter_cfg.c **** 	/* CYDEV_CLK_SELECT Starting address: CYDEV_CLK_SELECT */
 205:.\Generated_Source\PSoC4/cyfitter_cfg.c **** 	CY_SET_XTND_REG32((void CYFAR *)(CYREG_CLK_SELECT), 0x00000000u);
 158              		.loc 1 205 0
 159 0028 0025     		mov	r5, #0
 160 002a 2560     		str	r5, [r4]
 206:.\Generated_Source\PSoC4/cyfitter_cfg.c **** 
 207:.\Generated_Source\PSoC4/cyfitter_cfg.c **** 	(void)CyIntSetVector(9u, &CySysWdtIsr);
 161              		.loc 1 207 0
 162 002c 0920     		mov	r0, #9
 163 002e 0949     		ldr	r1, .L8+20
 164 0030 FFF7FEFF 		bl	CyIntSetVector
 165              	.LVL16:
 208:.\Generated_Source\PSoC4/cyfitter_cfg.c **** 	CyIntEnable(9u);
 166              		.loc 1 208 0
 167 0034 0920     		mov	r0, #9
 168 0036 FFF7FEFF 		bl	CyIntEnable
 169              	.LVL17:
 209:.\Generated_Source\PSoC4/cyfitter_cfg.c **** 	CY_SET_XTND_REG32((void CYFAR *)(CYREG_WDT_CONFIG), 0x00000000u);
 170              		.loc 1 209 0
 171 003a 074B     		ldr	r3, .L8+24
 172 003c 1D60     		str	r5, [r3]
 210:.\Generated_Source\PSoC4/cyfitter_cfg.c **** }
 173              		.loc 1 210 0
 174              		@ sp needed
 175 003e 38BD     		pop	{r3, r4, r5, pc}
 176              	.L9:
 177              		.align	2
 178              	.L8:
 179 0040 00010B40 		.word	1074462976
 180 0044 FFFFFBFF 		.word	-262145
 181 0048 06000080 		.word	-2147483642
 182 004c 04010B40 		.word	1074462980
 183 0050 08010B40 		.word	1074462984
ARM GAS  C:\Users\Javier\AppData\Local\Temp\ccvAue1c.s 			page 8


 184 0054 00000000 		.word	CySysWdtIsr
 185 0058 0C020B40 		.word	1074463244
 186              		.cfi_endproc
 187              	.LFE4:
 188              		.size	ClockSetup, .-ClockSetup
 189              		.align	2
 190              		.global	cyfitter_cfg
 191              		.code	16
 192              		.thumb_func
 193              		.type	cyfitter_cfg, %function
 194              	cyfitter_cfg:
 195              	.LFB6:
 211:.\Generated_Source\PSoC4/cyfitter_cfg.c **** 
 212:.\Generated_Source\PSoC4/cyfitter_cfg.c **** 
 213:.\Generated_Source\PSoC4/cyfitter_cfg.c **** /* Analog API Functions */
 214:.\Generated_Source\PSoC4/cyfitter_cfg.c **** 
 215:.\Generated_Source\PSoC4/cyfitter_cfg.c **** 
 216:.\Generated_Source\PSoC4/cyfitter_cfg.c **** /*******************************************************************************
 217:.\Generated_Source\PSoC4/cyfitter_cfg.c **** * Function Name: AnalogSetDefault
 218:.\Generated_Source\PSoC4/cyfitter_cfg.c **** ********************************************************************************
 219:.\Generated_Source\PSoC4/cyfitter_cfg.c **** *
 220:.\Generated_Source\PSoC4/cyfitter_cfg.c **** * Summary:
 221:.\Generated_Source\PSoC4/cyfitter_cfg.c **** *  Sets up the analog portions of the chip to default values based on chip
 222:.\Generated_Source\PSoC4/cyfitter_cfg.c **** *  configuration options from the project.
 223:.\Generated_Source\PSoC4/cyfitter_cfg.c **** *
 224:.\Generated_Source\PSoC4/cyfitter_cfg.c **** * Parameters:
 225:.\Generated_Source\PSoC4/cyfitter_cfg.c **** *  void
 226:.\Generated_Source\PSoC4/cyfitter_cfg.c **** *
 227:.\Generated_Source\PSoC4/cyfitter_cfg.c **** * Return:
 228:.\Generated_Source\PSoC4/cyfitter_cfg.c **** *  void
 229:.\Generated_Source\PSoC4/cyfitter_cfg.c **** *
 230:.\Generated_Source\PSoC4/cyfitter_cfg.c **** *******************************************************************************/
 231:.\Generated_Source\PSoC4/cyfitter_cfg.c **** static void AnalogSetDefault(void);
 232:.\Generated_Source\PSoC4/cyfitter_cfg.c **** static void AnalogSetDefault(void)
 233:.\Generated_Source\PSoC4/cyfitter_cfg.c **** {
 234:.\Generated_Source\PSoC4/cyfitter_cfg.c **** }
 235:.\Generated_Source\PSoC4/cyfitter_cfg.c **** 
 236:.\Generated_Source\PSoC4/cyfitter_cfg.c **** #define CY_AMUX_UNUSED CYREG_CM0_ROM_DWT
 237:.\Generated_Source\PSoC4/cyfitter_cfg.c **** 
 238:.\Generated_Source\PSoC4/cyfitter_cfg.c **** 
 239:.\Generated_Source\PSoC4/cyfitter_cfg.c **** /*******************************************************************************
 240:.\Generated_Source\PSoC4/cyfitter_cfg.c **** * Function Name: cyfitter_cfg
 241:.\Generated_Source\PSoC4/cyfitter_cfg.c **** ********************************************************************************
 242:.\Generated_Source\PSoC4/cyfitter_cfg.c **** * Summary:
 243:.\Generated_Source\PSoC4/cyfitter_cfg.c **** *  This function is called by the start-up code for the selected device. It
 244:.\Generated_Source\PSoC4/cyfitter_cfg.c **** *  performs all of the necessary device configuration based on the design
 245:.\Generated_Source\PSoC4/cyfitter_cfg.c **** *  settings.  This includes settings from the Design Wide Resources (DWR) such
 246:.\Generated_Source\PSoC4/cyfitter_cfg.c **** *  as Clocks and Pins as well as any component configuration that is necessary.
 247:.\Generated_Source\PSoC4/cyfitter_cfg.c **** *
 248:.\Generated_Source\PSoC4/cyfitter_cfg.c **** * Parameters:  
 249:.\Generated_Source\PSoC4/cyfitter_cfg.c **** *   void
 250:.\Generated_Source\PSoC4/cyfitter_cfg.c **** *
 251:.\Generated_Source\PSoC4/cyfitter_cfg.c **** * Return:
 252:.\Generated_Source\PSoC4/cyfitter_cfg.c **** *   void
 253:.\Generated_Source\PSoC4/cyfitter_cfg.c **** *
 254:.\Generated_Source\PSoC4/cyfitter_cfg.c **** *******************************************************************************/
 255:.\Generated_Source\PSoC4/cyfitter_cfg.c **** CY_CFG_SECTION
ARM GAS  C:\Users\Javier\AppData\Local\Temp\ccvAue1c.s 			page 9


 256:.\Generated_Source\PSoC4/cyfitter_cfg.c **** void cyfitter_cfg(void)
 257:.\Generated_Source\PSoC4/cyfitter_cfg.c **** {
 196              		.loc 1 257 0
 197              		.cfi_startproc
 198 005c 10B5     		push	{r4, lr}
 199              		.cfi_def_cfa_offset 8
 200              		.cfi_offset 4, -8
 201              		.cfi_offset 14, -4
 258:.\Generated_Source\PSoC4/cyfitter_cfg.c **** 	/* Disable interrupts by default. Let user enable if/when they want. */
 259:.\Generated_Source\PSoC4/cyfitter_cfg.c **** 	CyGlobalIntDisable;
 202              		.loc 1 259 0
 203              	@ 259 ".\Generated_Source\PSoC4\cyfitter_cfg.c" 1
 204 005e 72B6     		CPSID   i
 205              	@ 0 "" 2
 260:.\Generated_Source\PSoC4/cyfitter_cfg.c **** 
 261:.\Generated_Source\PSoC4/cyfitter_cfg.c **** 	/* Enable the clock in the interrupt controller for the routed interrupts */
 262:.\Generated_Source\PSoC4/cyfitter_cfg.c **** 	CY_SET_REG8((void *)CYREG_UDB_UDBIF_INT_CLK_CTL, 0x01u);
 206              		.loc 1 262 0
 207              		.code	16
 208 0060 0122     		mov	r2, #1
 209 0062 2D4B     		ldr	r3, .L13
 210 0064 1A70     		strb	r2, [r3]
 211              	.LVL18:
 212              	.LBB3:
 263:.\Generated_Source\PSoC4/cyfitter_cfg.c **** 	{
 264:.\Generated_Source\PSoC4/cyfitter_cfg.c **** 		static const uint32 CYCODE cy_cfg_addr_table[] = {
 265:.\Generated_Source\PSoC4/cyfitter_cfg.c **** 			0x400F302Cu, /* Base address: 0x400F3000 Count: 44 */
 266:.\Generated_Source\PSoC4/cyfitter_cfg.c **** 			0x400F312Fu, /* Base address: 0x400F3100 Count: 47 */
 267:.\Generated_Source\PSoC4/cyfitter_cfg.c **** 			0x400F3230u, /* Base address: 0x400F3200 Count: 48 */
 268:.\Generated_Source\PSoC4/cyfitter_cfg.c **** 			0x400F3335u, /* Base address: 0x400F3300 Count: 53 */
 269:.\Generated_Source\PSoC4/cyfitter_cfg.c **** 			0x400F4007u, /* Base address: 0x400F4000 Count: 7 */
 270:.\Generated_Source\PSoC4/cyfitter_cfg.c **** 			0x400F4108u, /* Base address: 0x400F4100 Count: 8 */
 271:.\Generated_Source\PSoC4/cyfitter_cfg.c **** 		};
 272:.\Generated_Source\PSoC4/cyfitter_cfg.c **** 
 273:.\Generated_Source\PSoC4/cyfitter_cfg.c **** 		static const cy_cfg_addrvalue_t CYCODE cy_cfg_data_table[] = {
 274:.\Generated_Source\PSoC4/cyfitter_cfg.c **** 			{0x06u, 0x01u},
 275:.\Generated_Source\PSoC4/cyfitter_cfg.c **** 			{0x0Eu, 0x02u},
 276:.\Generated_Source\PSoC4/cyfitter_cfg.c **** 			{0x16u, 0x07u},
 277:.\Generated_Source\PSoC4/cyfitter_cfg.c **** 			{0x17u, 0x01u},
 278:.\Generated_Source\PSoC4/cyfitter_cfg.c **** 			{0x1Bu, 0x03u},
 279:.\Generated_Source\PSoC4/cyfitter_cfg.c **** 			{0x26u, 0x04u},
 280:.\Generated_Source\PSoC4/cyfitter_cfg.c **** 			{0x2Fu, 0x02u},
 281:.\Generated_Source\PSoC4/cyfitter_cfg.c **** 			{0x30u, 0x02u},
 282:.\Generated_Source\PSoC4/cyfitter_cfg.c **** 			{0x32u, 0x01u},
 283:.\Generated_Source\PSoC4/cyfitter_cfg.c **** 			{0x33u, 0x01u},
 284:.\Generated_Source\PSoC4/cyfitter_cfg.c **** 			{0x34u, 0x04u},
 285:.\Generated_Source\PSoC4/cyfitter_cfg.c **** 			{0x37u, 0x02u},
 286:.\Generated_Source\PSoC4/cyfitter_cfg.c **** 			{0x3Eu, 0x15u},
 287:.\Generated_Source\PSoC4/cyfitter_cfg.c **** 			{0x3Fu, 0x44u},
 288:.\Generated_Source\PSoC4/cyfitter_cfg.c **** 			{0x58u, 0x04u},
 289:.\Generated_Source\PSoC4/cyfitter_cfg.c **** 			{0x59u, 0x04u},
 290:.\Generated_Source\PSoC4/cyfitter_cfg.c **** 			{0x5Bu, 0x04u},
 291:.\Generated_Source\PSoC4/cyfitter_cfg.c **** 			{0x5Fu, 0x01u},
 292:.\Generated_Source\PSoC4/cyfitter_cfg.c **** 			{0x86u, 0x01u},
 293:.\Generated_Source\PSoC4/cyfitter_cfg.c **** 			{0x8Eu, 0x02u},
 294:.\Generated_Source\PSoC4/cyfitter_cfg.c **** 			{0x93u, 0x01u},
 295:.\Generated_Source\PSoC4/cyfitter_cfg.c **** 			{0x97u, 0x04u},
ARM GAS  C:\Users\Javier\AppData\Local\Temp\ccvAue1c.s 			page 10


 296:.\Generated_Source\PSoC4/cyfitter_cfg.c **** 			{0x9Bu, 0x02u},
 297:.\Generated_Source\PSoC4/cyfitter_cfg.c **** 			{0x9Cu, 0x01u},
 298:.\Generated_Source\PSoC4/cyfitter_cfg.c **** 			{0x9Eu, 0x1Eu},
 299:.\Generated_Source\PSoC4/cyfitter_cfg.c **** 			{0x9Fu, 0x08u},
 300:.\Generated_Source\PSoC4/cyfitter_cfg.c **** 			{0xA2u, 0x10u},
 301:.\Generated_Source\PSoC4/cyfitter_cfg.c **** 			{0xA3u, 0x0Fu},
 302:.\Generated_Source\PSoC4/cyfitter_cfg.c **** 			{0xA6u, 0x04u},
 303:.\Generated_Source\PSoC4/cyfitter_cfg.c **** 			{0xAAu, 0x08u},
 304:.\Generated_Source\PSoC4/cyfitter_cfg.c **** 			{0xB0u, 0x03u},
 305:.\Generated_Source\PSoC4/cyfitter_cfg.c **** 			{0xB1u, 0x01u},
 306:.\Generated_Source\PSoC4/cyfitter_cfg.c **** 			{0xB2u, 0x04u},
 307:.\Generated_Source\PSoC4/cyfitter_cfg.c **** 			{0xB3u, 0x02u},
 308:.\Generated_Source\PSoC4/cyfitter_cfg.c **** 			{0xB4u, 0x08u},
 309:.\Generated_Source\PSoC4/cyfitter_cfg.c **** 			{0xB5u, 0x04u},
 310:.\Generated_Source\PSoC4/cyfitter_cfg.c **** 			{0xB6u, 0x10u},
 311:.\Generated_Source\PSoC4/cyfitter_cfg.c **** 			{0xB7u, 0x08u},
 312:.\Generated_Source\PSoC4/cyfitter_cfg.c **** 			{0xBEu, 0x55u},
 313:.\Generated_Source\PSoC4/cyfitter_cfg.c **** 			{0xBFu, 0x55u},
 314:.\Generated_Source\PSoC4/cyfitter_cfg.c **** 			{0xD8u, 0x04u},
 315:.\Generated_Source\PSoC4/cyfitter_cfg.c **** 			{0xD9u, 0x04u},
 316:.\Generated_Source\PSoC4/cyfitter_cfg.c **** 			{0xDBu, 0x04u},
 317:.\Generated_Source\PSoC4/cyfitter_cfg.c **** 			{0xDFu, 0x01u},
 318:.\Generated_Source\PSoC4/cyfitter_cfg.c **** 			{0x00u, 0x88u},
 319:.\Generated_Source\PSoC4/cyfitter_cfg.c **** 			{0x04u, 0x02u},
 320:.\Generated_Source\PSoC4/cyfitter_cfg.c **** 			{0x05u, 0x02u},
 321:.\Generated_Source\PSoC4/cyfitter_cfg.c **** 			{0x06u, 0x04u},
 322:.\Generated_Source\PSoC4/cyfitter_cfg.c **** 			{0x07u, 0x29u},
 323:.\Generated_Source\PSoC4/cyfitter_cfg.c **** 			{0x0Au, 0x20u},
 324:.\Generated_Source\PSoC4/cyfitter_cfg.c **** 			{0x0Cu, 0x80u},
 325:.\Generated_Source\PSoC4/cyfitter_cfg.c **** 			{0x10u, 0x21u},
 326:.\Generated_Source\PSoC4/cyfitter_cfg.c **** 			{0x13u, 0x80u},
 327:.\Generated_Source\PSoC4/cyfitter_cfg.c **** 			{0x15u, 0x01u},
 328:.\Generated_Source\PSoC4/cyfitter_cfg.c **** 			{0x17u, 0x14u},
 329:.\Generated_Source\PSoC4/cyfitter_cfg.c **** 			{0x18u, 0x04u},
 330:.\Generated_Source\PSoC4/cyfitter_cfg.c **** 			{0x19u, 0x01u},
 331:.\Generated_Source\PSoC4/cyfitter_cfg.c **** 			{0x1Au, 0x10u},
 332:.\Generated_Source\PSoC4/cyfitter_cfg.c **** 			{0x1Eu, 0xAAu},
 333:.\Generated_Source\PSoC4/cyfitter_cfg.c **** 			{0x20u, 0x01u},
 334:.\Generated_Source\PSoC4/cyfitter_cfg.c **** 			{0x23u, 0x10u},
 335:.\Generated_Source\PSoC4/cyfitter_cfg.c **** 			{0x24u, 0x02u},
 336:.\Generated_Source\PSoC4/cyfitter_cfg.c **** 			{0x25u, 0x04u},
 337:.\Generated_Source\PSoC4/cyfitter_cfg.c **** 			{0x27u, 0x88u},
 338:.\Generated_Source\PSoC4/cyfitter_cfg.c **** 			{0x29u, 0x40u},
 339:.\Generated_Source\PSoC4/cyfitter_cfg.c **** 			{0x2Cu, 0x80u},
 340:.\Generated_Source\PSoC4/cyfitter_cfg.c **** 			{0x31u, 0x08u},
 341:.\Generated_Source\PSoC4/cyfitter_cfg.c **** 			{0x32u, 0x10u},
 342:.\Generated_Source\PSoC4/cyfitter_cfg.c **** 			{0x35u, 0x14u},
 343:.\Generated_Source\PSoC4/cyfitter_cfg.c **** 			{0x37u, 0x42u},
 344:.\Generated_Source\PSoC4/cyfitter_cfg.c **** 			{0x45u, 0x04u},
 345:.\Generated_Source\PSoC4/cyfitter_cfg.c **** 			{0x46u, 0x10u},
 346:.\Generated_Source\PSoC4/cyfitter_cfg.c **** 			{0x5Eu, 0xAAu},
 347:.\Generated_Source\PSoC4/cyfitter_cfg.c **** 			{0x64u, 0x01u},
 348:.\Generated_Source\PSoC4/cyfitter_cfg.c **** 			{0x65u, 0x02u},
 349:.\Generated_Source\PSoC4/cyfitter_cfg.c **** 			{0x66u, 0x14u},
 350:.\Generated_Source\PSoC4/cyfitter_cfg.c **** 			{0x68u, 0x80u},
 351:.\Generated_Source\PSoC4/cyfitter_cfg.c **** 			{0x6Au, 0x20u},
 352:.\Generated_Source\PSoC4/cyfitter_cfg.c **** 			{0x6Du, 0x01u},
ARM GAS  C:\Users\Javier\AppData\Local\Temp\ccvAue1c.s 			page 11


 353:.\Generated_Source\PSoC4/cyfitter_cfg.c **** 			{0x6Fu, 0x15u},
 354:.\Generated_Source\PSoC4/cyfitter_cfg.c **** 			{0x75u, 0x14u},
 355:.\Generated_Source\PSoC4/cyfitter_cfg.c **** 			{0x77u, 0x42u},
 356:.\Generated_Source\PSoC4/cyfitter_cfg.c **** 			{0x8Bu, 0x20u},
 357:.\Generated_Source\PSoC4/cyfitter_cfg.c **** 			{0xC0u, 0xA5u},
 358:.\Generated_Source\PSoC4/cyfitter_cfg.c **** 			{0xC2u, 0x84u},
 359:.\Generated_Source\PSoC4/cyfitter_cfg.c **** 			{0xC4u, 0x74u},
 360:.\Generated_Source\PSoC4/cyfitter_cfg.c **** 			{0xCAu, 0x88u},
 361:.\Generated_Source\PSoC4/cyfitter_cfg.c **** 			{0xCCu, 0xF6u},
 362:.\Generated_Source\PSoC4/cyfitter_cfg.c **** 			{0xD6u, 0xF0u},
 363:.\Generated_Source\PSoC4/cyfitter_cfg.c **** 			{0xD8u, 0xF0u},
 364:.\Generated_Source\PSoC4/cyfitter_cfg.c **** 			{0xE4u, 0x20u},
 365:.\Generated_Source\PSoC4/cyfitter_cfg.c **** 			{0x06u, 0x07u},
 366:.\Generated_Source\PSoC4/cyfitter_cfg.c **** 			{0x07u, 0x0Fu},
 367:.\Generated_Source\PSoC4/cyfitter_cfg.c **** 			{0x0Au, 0x03u},
 368:.\Generated_Source\PSoC4/cyfitter_cfg.c **** 			{0x0Bu, 0x03u},
 369:.\Generated_Source\PSoC4/cyfitter_cfg.c **** 			{0x12u, 0x01u},
 370:.\Generated_Source\PSoC4/cyfitter_cfg.c **** 			{0x13u, 0x07u},
 371:.\Generated_Source\PSoC4/cyfitter_cfg.c **** 			{0x16u, 0x0Fu},
 372:.\Generated_Source\PSoC4/cyfitter_cfg.c **** 			{0x1Au, 0x0Fu},
 373:.\Generated_Source\PSoC4/cyfitter_cfg.c **** 			{0x1Bu, 0x01u},
 374:.\Generated_Source\PSoC4/cyfitter_cfg.c **** 			{0x1Eu, 0x0Fu},
 375:.\Generated_Source\PSoC4/cyfitter_cfg.c **** 			{0x22u, 0x0Fu},
 376:.\Generated_Source\PSoC4/cyfitter_cfg.c **** 			{0x2Au, 0x0Fu},
 377:.\Generated_Source\PSoC4/cyfitter_cfg.c **** 			{0x30u, 0x02u},
 378:.\Generated_Source\PSoC4/cyfitter_cfg.c **** 			{0x31u, 0x08u},
 379:.\Generated_Source\PSoC4/cyfitter_cfg.c **** 			{0x32u, 0x08u},
 380:.\Generated_Source\PSoC4/cyfitter_cfg.c **** 			{0x33u, 0x04u},
 381:.\Generated_Source\PSoC4/cyfitter_cfg.c **** 			{0x34u, 0x04u},
 382:.\Generated_Source\PSoC4/cyfitter_cfg.c **** 			{0x35u, 0x02u},
 383:.\Generated_Source\PSoC4/cyfitter_cfg.c **** 			{0x36u, 0x01u},
 384:.\Generated_Source\PSoC4/cyfitter_cfg.c **** 			{0x37u, 0x01u},
 385:.\Generated_Source\PSoC4/cyfitter_cfg.c **** 			{0x3Au, 0x2Au},
 386:.\Generated_Source\PSoC4/cyfitter_cfg.c **** 			{0x3Bu, 0xAAu},
 387:.\Generated_Source\PSoC4/cyfitter_cfg.c **** 			{0x3Eu, 0x40u},
 388:.\Generated_Source\PSoC4/cyfitter_cfg.c **** 			{0x58u, 0x04u},
 389:.\Generated_Source\PSoC4/cyfitter_cfg.c **** 			{0x59u, 0x04u},
 390:.\Generated_Source\PSoC4/cyfitter_cfg.c **** 			{0x5Cu, 0x88u},
 391:.\Generated_Source\PSoC4/cyfitter_cfg.c **** 			{0x5Fu, 0x31u},
 392:.\Generated_Source\PSoC4/cyfitter_cfg.c **** 			{0x82u, 0x03u},
 393:.\Generated_Source\PSoC4/cyfitter_cfg.c **** 			{0x83u, 0x02u},
 394:.\Generated_Source\PSoC4/cyfitter_cfg.c **** 			{0x87u, 0x01u},
 395:.\Generated_Source\PSoC4/cyfitter_cfg.c **** 			{0x93u, 0x04u},
 396:.\Generated_Source\PSoC4/cyfitter_cfg.c **** 			{0x9Au, 0x01u},
 397:.\Generated_Source\PSoC4/cyfitter_cfg.c **** 			{0x9Bu, 0x07u},
 398:.\Generated_Source\PSoC4/cyfitter_cfg.c **** 			{0x9Eu, 0x07u},
 399:.\Generated_Source\PSoC4/cyfitter_cfg.c **** 			{0xB0u, 0x04u},
 400:.\Generated_Source\PSoC4/cyfitter_cfg.c **** 			{0xB1u, 0x02u},
 401:.\Generated_Source\PSoC4/cyfitter_cfg.c **** 			{0xB3u, 0x01u},
 402:.\Generated_Source\PSoC4/cyfitter_cfg.c **** 			{0xB4u, 0x02u},
 403:.\Generated_Source\PSoC4/cyfitter_cfg.c **** 			{0xB6u, 0x01u},
 404:.\Generated_Source\PSoC4/cyfitter_cfg.c **** 			{0xB7u, 0x04u},
 405:.\Generated_Source\PSoC4/cyfitter_cfg.c **** 			{0xBAu, 0xA2u},
 406:.\Generated_Source\PSoC4/cyfitter_cfg.c **** 			{0xBBu, 0x30u},
 407:.\Generated_Source\PSoC4/cyfitter_cfg.c **** 			{0xBFu, 0x45u},
 408:.\Generated_Source\PSoC4/cyfitter_cfg.c **** 			{0xD8u, 0x04u},
 409:.\Generated_Source\PSoC4/cyfitter_cfg.c **** 			{0xD9u, 0x04u},
ARM GAS  C:\Users\Javier\AppData\Local\Temp\ccvAue1c.s 			page 12


 410:.\Generated_Source\PSoC4/cyfitter_cfg.c **** 			{0xDBu, 0x04u},
 411:.\Generated_Source\PSoC4/cyfitter_cfg.c **** 			{0xDCu, 0x88u},
 412:.\Generated_Source\PSoC4/cyfitter_cfg.c **** 			{0xDFu, 0x31u},
 413:.\Generated_Source\PSoC4/cyfitter_cfg.c **** 			{0x01u, 0x02u},
 414:.\Generated_Source\PSoC4/cyfitter_cfg.c **** 			{0x05u, 0x14u},
 415:.\Generated_Source\PSoC4/cyfitter_cfg.c **** 			{0x09u, 0x80u},
 416:.\Generated_Source\PSoC4/cyfitter_cfg.c **** 			{0x0Au, 0x04u},
 417:.\Generated_Source\PSoC4/cyfitter_cfg.c **** 			{0x0Eu, 0x62u},
 418:.\Generated_Source\PSoC4/cyfitter_cfg.c **** 			{0x0Fu, 0x04u},
 419:.\Generated_Source\PSoC4/cyfitter_cfg.c **** 			{0x17u, 0x12u},
 420:.\Generated_Source\PSoC4/cyfitter_cfg.c **** 			{0x19u, 0x82u},
 421:.\Generated_Source\PSoC4/cyfitter_cfg.c **** 			{0x1Au, 0x04u},
 422:.\Generated_Source\PSoC4/cyfitter_cfg.c **** 			{0x1Du, 0x94u},
 423:.\Generated_Source\PSoC4/cyfitter_cfg.c **** 			{0x1Eu, 0x40u},
 424:.\Generated_Source\PSoC4/cyfitter_cfg.c **** 			{0x20u, 0x40u},
 425:.\Generated_Source\PSoC4/cyfitter_cfg.c **** 			{0x22u, 0xC4u},
 426:.\Generated_Source\PSoC4/cyfitter_cfg.c **** 			{0x23u, 0x04u},
 427:.\Generated_Source\PSoC4/cyfitter_cfg.c **** 			{0x24u, 0x10u},
 428:.\Generated_Source\PSoC4/cyfitter_cfg.c **** 			{0x26u, 0x11u},
 429:.\Generated_Source\PSoC4/cyfitter_cfg.c **** 			{0x27u, 0x12u},
 430:.\Generated_Source\PSoC4/cyfitter_cfg.c **** 			{0x30u, 0x02u},
 431:.\Generated_Source\PSoC4/cyfitter_cfg.c **** 			{0x32u, 0x10u},
 432:.\Generated_Source\PSoC4/cyfitter_cfg.c **** 			{0x36u, 0x11u},
 433:.\Generated_Source\PSoC4/cyfitter_cfg.c **** 			{0x38u, 0x02u},
 434:.\Generated_Source\PSoC4/cyfitter_cfg.c **** 			{0x39u, 0x04u},
 435:.\Generated_Source\PSoC4/cyfitter_cfg.c **** 			{0x3Cu, 0x10u},
 436:.\Generated_Source\PSoC4/cyfitter_cfg.c **** 			{0x3Fu, 0x04u},
 437:.\Generated_Source\PSoC4/cyfitter_cfg.c **** 			{0x59u, 0x01u},
 438:.\Generated_Source\PSoC4/cyfitter_cfg.c **** 			{0x5Au, 0x98u},
 439:.\Generated_Source\PSoC4/cyfitter_cfg.c **** 			{0x60u, 0x45u},
 440:.\Generated_Source\PSoC4/cyfitter_cfg.c **** 			{0x63u, 0x10u},
 441:.\Generated_Source\PSoC4/cyfitter_cfg.c **** 			{0x68u, 0x46u},
 442:.\Generated_Source\PSoC4/cyfitter_cfg.c **** 			{0x69u, 0x04u},
 443:.\Generated_Source\PSoC4/cyfitter_cfg.c **** 			{0x70u, 0x21u},
 444:.\Generated_Source\PSoC4/cyfitter_cfg.c **** 			{0x71u, 0x48u},
 445:.\Generated_Source\PSoC4/cyfitter_cfg.c **** 			{0x7Bu, 0x80u},
 446:.\Generated_Source\PSoC4/cyfitter_cfg.c **** 			{0x7Fu, 0x80u},
 447:.\Generated_Source\PSoC4/cyfitter_cfg.c **** 			{0x83u, 0x80u},
 448:.\Generated_Source\PSoC4/cyfitter_cfg.c **** 			{0x8Eu, 0x80u},
 449:.\Generated_Source\PSoC4/cyfitter_cfg.c **** 			{0x90u, 0x05u},
 450:.\Generated_Source\PSoC4/cyfitter_cfg.c **** 			{0x92u, 0x30u},
 451:.\Generated_Source\PSoC4/cyfitter_cfg.c **** 			{0x93u, 0x10u},
 452:.\Generated_Source\PSoC4/cyfitter_cfg.c **** 			{0x99u, 0x01u},
 453:.\Generated_Source\PSoC4/cyfitter_cfg.c **** 			{0x9Du, 0xC0u},
 454:.\Generated_Source\PSoC4/cyfitter_cfg.c **** 			{0xA4u, 0x64u},
 455:.\Generated_Source\PSoC4/cyfitter_cfg.c **** 			{0xA5u, 0x08u},
 456:.\Generated_Source\PSoC4/cyfitter_cfg.c **** 			{0xADu, 0x80u},
 457:.\Generated_Source\PSoC4/cyfitter_cfg.c **** 			{0xC0u, 0x68u},
 458:.\Generated_Source\PSoC4/cyfitter_cfg.c **** 			{0xC2u, 0xF3u},
 459:.\Generated_Source\PSoC4/cyfitter_cfg.c **** 			{0xC4u, 0x50u},
 460:.\Generated_Source\PSoC4/cyfitter_cfg.c **** 			{0xCCu, 0xA5u},
 461:.\Generated_Source\PSoC4/cyfitter_cfg.c **** 			{0xCEu, 0x63u},
 462:.\Generated_Source\PSoC4/cyfitter_cfg.c **** 			{0xD6u, 0x0Fu},
 463:.\Generated_Source\PSoC4/cyfitter_cfg.c **** 			{0xD8u, 0x0Fu},
 464:.\Generated_Source\PSoC4/cyfitter_cfg.c **** 			{0xDEu, 0x81u},
 465:.\Generated_Source\PSoC4/cyfitter_cfg.c **** 			{0xE2u, 0x40u},
 466:.\Generated_Source\PSoC4/cyfitter_cfg.c **** 			{0x0Fu, 0x04u},
ARM GAS  C:\Users\Javier\AppData\Local\Temp\ccvAue1c.s 			page 13


 467:.\Generated_Source\PSoC4/cyfitter_cfg.c **** 			{0x1Bu, 0x20u},
 468:.\Generated_Source\PSoC4/cyfitter_cfg.c **** 			{0x6Fu, 0x02u},
 469:.\Generated_Source\PSoC4/cyfitter_cfg.c **** 			{0x8Bu, 0x04u},
 470:.\Generated_Source\PSoC4/cyfitter_cfg.c **** 			{0xC2u, 0x80u},
 471:.\Generated_Source\PSoC4/cyfitter_cfg.c **** 			{0xC6u, 0x40u},
 472:.\Generated_Source\PSoC4/cyfitter_cfg.c **** 			{0xDAu, 0x80u},
 473:.\Generated_Source\PSoC4/cyfitter_cfg.c **** 			{0x63u, 0x08u},
 474:.\Generated_Source\PSoC4/cyfitter_cfg.c **** 			{0x83u, 0x20u},
 475:.\Generated_Source\PSoC4/cyfitter_cfg.c **** 			{0x8Fu, 0x04u},
 476:.\Generated_Source\PSoC4/cyfitter_cfg.c **** 			{0xA3u, 0x20u},
 477:.\Generated_Source\PSoC4/cyfitter_cfg.c **** 			{0xAFu, 0x02u},
 478:.\Generated_Source\PSoC4/cyfitter_cfg.c **** 			{0xD8u, 0x40u},
 479:.\Generated_Source\PSoC4/cyfitter_cfg.c **** 			{0xE4u, 0x20u},
 480:.\Generated_Source\PSoC4/cyfitter_cfg.c **** 			{0xEAu, 0x10u},
 481:.\Generated_Source\PSoC4/cyfitter_cfg.c **** 		};
 482:.\Generated_Source\PSoC4/cyfitter_cfg.c **** 
 483:.\Generated_Source\PSoC4/cyfitter_cfg.c **** 
 484:.\Generated_Source\PSoC4/cyfitter_cfg.c **** 
 485:.\Generated_Source\PSoC4/cyfitter_cfg.c **** 		CYPACKED typedef struct {
 486:.\Generated_Source\PSoC4/cyfitter_cfg.c **** 			void CYFAR *address;
 487:.\Generated_Source\PSoC4/cyfitter_cfg.c **** 			uint16 size;
 488:.\Generated_Source\PSoC4/cyfitter_cfg.c **** 		} CYPACKED_ATTR cfg_memset_t;
 489:.\Generated_Source\PSoC4/cyfitter_cfg.c **** 
 490:.\Generated_Source\PSoC4/cyfitter_cfg.c **** 		static const cfg_memset_t CYCODE cfg_memset_list [] = {
 491:.\Generated_Source\PSoC4/cyfitter_cfg.c **** 			/* address, size */
 492:.\Generated_Source\PSoC4/cyfitter_cfg.c **** 			{(void CYFAR *)(CYDEV_UDB_P0_U0_BASE), 1024u},
 493:.\Generated_Source\PSoC4/cyfitter_cfg.c **** 			{(void CYFAR *)(CYDEV_UDB_DSI0_BASE), 1024u},
 494:.\Generated_Source\PSoC4/cyfitter_cfg.c **** 		};
 495:.\Generated_Source\PSoC4/cyfitter_cfg.c **** 
 496:.\Generated_Source\PSoC4/cyfitter_cfg.c **** 		uint8 CYDATA i;
 497:.\Generated_Source\PSoC4/cyfitter_cfg.c **** 
 498:.\Generated_Source\PSoC4/cyfitter_cfg.c **** 		/* Zero out critical memory blocks before beginning configuration */
 499:.\Generated_Source\PSoC4/cyfitter_cfg.c **** 		for (i = 0u; i < (sizeof(cfg_memset_list)/sizeof(cfg_memset_list[0])); i++)
 213              		.loc 1 499 0
 214 0066 0024     		mov	r4, #0
 215 0068 10E0     		b	.L11
 216              	.LVL19:
 217              	.L12:
 218              	.LBB4:
 500:.\Generated_Source\PSoC4/cyfitter_cfg.c **** 		{
 501:.\Generated_Source\PSoC4/cyfitter_cfg.c **** 			const cfg_memset_t CYCODE * CYDATA ms = &cfg_memset_list[i];
 502:.\Generated_Source\PSoC4/cyfitter_cfg.c **** 			CYMEMZERO(ms->address, (size_t)(uint32)(ms->size));
 219              		.loc 1 502 0 discriminator 3
 220 006a 2C48     		ldr	r0, .L13+4
 221 006c 6300     		lsl	r3, r4, #1
 222 006e 1A19     		add	r2, r3, r4
 223 0070 5200     		lsl	r2, r2, #1
 224 0072 8218     		add	r2, r0, r2
 225 0074 9188     		ldrh	r1, [r2, #4]
 226 0076 1B19     		add	r3, r3, r4
 227 0078 5B00     		lsl	r3, r3, #1
 228 007a 1A5A     		ldrh	r2, [r3, r0]
 229 007c C318     		add	r3, r0, r3
 230 007e 5888     		ldrh	r0, [r3, #2]
 231 0080 0004     		lsl	r0, r0, #16
 232 0082 1043     		orr	r0, r2
 233 0084 FFF7FEFF 		bl	CYMEMZERO
ARM GAS  C:\Users\Javier\AppData\Local\Temp\ccvAue1c.s 			page 14


 234              	.LVL20:
 235              	.LBE4:
 499:.\Generated_Source\PSoC4/cyfitter_cfg.c **** 		{
 236              		.loc 1 499 0 discriminator 3
 237 0088 0134     		add	r4, r4, #1
 238              	.LVL21:
 239 008a E4B2     		uxtb	r4, r4
 240              	.LVL22:
 241              	.L11:
 499:.\Generated_Source\PSoC4/cyfitter_cfg.c **** 		{
 242              		.loc 1 499 0 is_stmt 0 discriminator 1
 243 008c 012C     		cmp	r4, #1
 244 008e ECD9     		bls	.L12
 503:.\Generated_Source\PSoC4/cyfitter_cfg.c **** 		}
 504:.\Generated_Source\PSoC4/cyfitter_cfg.c **** 
 505:.\Generated_Source\PSoC4/cyfitter_cfg.c **** 		cfg_write_bytes32(cy_cfg_addr_table, cy_cfg_data_table);
 245              		.loc 1 505 0 is_stmt 1
 246 0090 2249     		ldr	r1, .L13+4
 247 0092 081C     		mov	r0, r1
 248 0094 0C30     		add	r0, r0, #12
 249 0096 2431     		add	r1, r1, #36
 250 0098 FFF7FEFF 		bl	cfg_write_bytes32
 251              	.LVL23:
 506:.\Generated_Source\PSoC4/cyfitter_cfg.c **** 
 507:.\Generated_Source\PSoC4/cyfitter_cfg.c **** 		/* HSIOM Starting address: CYDEV_HSIOM_BASE */
 508:.\Generated_Source\PSoC4/cyfitter_cfg.c **** 		CY_SET_XTND_REG32((void CYFAR *)(CYREG_HSIOM_PORT_SEL1), 0x03000000u);
 252              		.loc 1 508 0
 253 009c C022     		mov	r2, #192
 254 009e 9204     		lsl	r2, r2, #18
 255 00a0 1F4B     		ldr	r3, .L13+8
 256 00a2 1A60     		str	r2, [r3]
 509:.\Generated_Source\PSoC4/cyfitter_cfg.c **** 		CY_SET_XTND_REG32((void CYFAR *)(CYREG_HSIOM_PORT_SEL3), 0x0000EE00u);
 257              		.loc 1 509 0
 258 00a4 EE22     		mov	r2, #238
 259 00a6 1202     		lsl	r2, r2, #8
 260 00a8 1E4B     		ldr	r3, .L13+12
 261 00aa 1A60     		str	r2, [r3]
 510:.\Generated_Source\PSoC4/cyfitter_cfg.c **** 
 511:.\Generated_Source\PSoC4/cyfitter_cfg.c **** 		/* UDB_PA_0 Starting address: CYDEV_UDB_PA0_BASE */
 512:.\Generated_Source\PSoC4/cyfitter_cfg.c **** 		CY_SET_XTND_REG32((void CYFAR *)(CYDEV_UDB_PA0_BASE), 0x00990000u);
 262              		.loc 1 512 0
 263 00ac 9923     		mov	r3, #153
 264 00ae 1B04     		lsl	r3, r3, #16
 265 00b0 1D4A     		ldr	r2, .L13+16
 266 00b2 1360     		str	r3, [r2]
 513:.\Generated_Source\PSoC4/cyfitter_cfg.c **** 
 514:.\Generated_Source\PSoC4/cyfitter_cfg.c **** 		/* UDB_PA_1 Starting address: CYDEV_UDB_PA1_BASE */
 515:.\Generated_Source\PSoC4/cyfitter_cfg.c **** 		CY_SET_XTND_REG32((void CYFAR *)(CYDEV_UDB_PA1_BASE), 0x00990000u);
 267              		.loc 1 515 0
 268 00b4 1D4A     		ldr	r2, .L13+20
 269 00b6 1360     		str	r3, [r2]
 516:.\Generated_Source\PSoC4/cyfitter_cfg.c **** 		CY_SET_XTND_REG32((void CYFAR *)(CYREG_UDB_PA1_CFG8), 0x20000000u);
 270              		.loc 1 516 0
 271 00b8 8021     		mov	r1, #128
 272 00ba 8905     		lsl	r1, r1, #22
 273 00bc 1C4A     		ldr	r2, .L13+24
 274 00be 1160     		str	r1, [r2]
ARM GAS  C:\Users\Javier\AppData\Local\Temp\ccvAue1c.s 			page 15


 517:.\Generated_Source\PSoC4/cyfitter_cfg.c **** 
 518:.\Generated_Source\PSoC4/cyfitter_cfg.c **** 		/* UDB_PA_3 Starting address: CYDEV_UDB_PA3_BASE */
 519:.\Generated_Source\PSoC4/cyfitter_cfg.c **** 		CY_SET_XTND_REG32((void CYFAR *)(CYDEV_UDB_PA3_BASE), 0x00990000u);
 275              		.loc 1 519 0
 276 00c0 1C4A     		ldr	r2, .L13+28
 277 00c2 1360     		str	r3, [r2]
 520:.\Generated_Source\PSoC4/cyfitter_cfg.c **** 
 521:.\Generated_Source\PSoC4/cyfitter_cfg.c **** 		/* INT_SELECT Starting address: CYDEV_CPUSS_INTR_SELECT */
 522:.\Generated_Source\PSoC4/cyfitter_cfg.c **** 		CY_SET_XTND_REG32((void CYFAR *)(CYREG_CPUSS_INTR_SELECT), 0x00000001u);
 278              		.loc 1 522 0
 279 00c4 0122     		mov	r2, #1
 280 00c6 1C4B     		ldr	r3, .L13+32
 281 00c8 1A60     		str	r2, [r3]
 523:.\Generated_Source\PSoC4/cyfitter_cfg.c **** 
 524:.\Generated_Source\PSoC4/cyfitter_cfg.c **** 		/* INT_CONFIG Starting address: CYDEV_UDB_INT_CFG */
 525:.\Generated_Source\PSoC4/cyfitter_cfg.c **** 		CY_SET_XTND_REG32((void CYFAR *)(CYREG_UDB_INT_CFG), 0x00000002u);
 282              		.loc 1 525 0
 283 00ca 0132     		add	r2, r2, #1
 284 00cc 1B4B     		ldr	r3, .L13+36
 285 00ce 1A60     		str	r2, [r3]
 526:.\Generated_Source\PSoC4/cyfitter_cfg.c **** 
 527:.\Generated_Source\PSoC4/cyfitter_cfg.c **** 		/* Enable digital routing */
 528:.\Generated_Source\PSoC4/cyfitter_cfg.c **** 		CY_SET_XTND_REG8((void *)CYREG_UDB_UDBIF_BANK_CTL, CY_GET_XTND_REG8((void *)CYREG_UDB_UDBIF_BANK_
 286              		.loc 1 528 0
 287 00d0 1B4B     		ldr	r3, .L13+40
 288 00d2 1978     		ldrb	r1, [r3]
 289 00d4 0A43     		orr	r2, r1
 290 00d6 1A70     		strb	r2, [r3]
 529:.\Generated_Source\PSoC4/cyfitter_cfg.c **** 
 530:.\Generated_Source\PSoC4/cyfitter_cfg.c **** 		/* Enable UDB array */
 531:.\Generated_Source\PSoC4/cyfitter_cfg.c **** 		CY_SET_XTND_REG8((void *)CYREG_UDB_UDBIF_WAIT_CFG, (uint8)((CY_GET_XTND_REG8((void *)CYREG_UDB_UD
 291              		.loc 1 531 0
 292 00d8 1A48     		ldr	r0, .L13+44
 293 00da 0278     		ldrb	r2, [r0]
 294 00dc 3C21     		mov	r1, #60
 295 00de 8A43     		bic	r2, r1
 296 00e0 2839     		sub	r1, r1, #40
 297 00e2 0A43     		orr	r2, r1
 298 00e4 0270     		strb	r2, [r0]
 532:.\Generated_Source\PSoC4/cyfitter_cfg.c **** 		CY_SET_XTND_REG8((void *)CYREG_UDB_UDBIF_BANK_CTL, (uint8)(CY_GET_XTND_REG8((void *)CYREG_UDB_UDB
 299              		.loc 1 532 0
 300 00e6 1978     		ldrb	r1, [r3]
 301 00e8 1622     		mov	r2, #22
 302 00ea 0A43     		orr	r2, r1
 303 00ec 1A70     		strb	r2, [r3]
 304              	.LBE3:
 533:.\Generated_Source\PSoC4/cyfitter_cfg.c **** 	}
 534:.\Generated_Source\PSoC4/cyfitter_cfg.c **** 
 535:.\Generated_Source\PSoC4/cyfitter_cfg.c **** 	/* Perform second pass device configuration. These items must be configured in specific order afte
 536:.\Generated_Source\PSoC4/cyfitter_cfg.c **** 	/* IOPINS0_0 Starting address: CYDEV_PRT0_BASE */
 537:.\Generated_Source\PSoC4/cyfitter_cfg.c **** 	CY_SET_XTND_REG32((void CYFAR *)(CYDEV_PRT0_BASE), 0x00000080u);
 305              		.loc 1 537 0
 306 00ee 8022     		mov	r2, #128
 307 00f0 154B     		ldr	r3, .L13+48
 308 00f2 1A60     		str	r2, [r3]
 538:.\Generated_Source\PSoC4/cyfitter_cfg.c **** 	CY_SET_XTND_REG32((void CYFAR *)(CYREG_PRT0_PC), 0x00400000u);
 309              		.loc 1 538 0
ARM GAS  C:\Users\Javier\AppData\Local\Temp\ccvAue1c.s 			page 16


 310 00f4 8022     		mov	r2, #128
 311 00f6 D203     		lsl	r2, r2, #15
 312 00f8 144B     		ldr	r3, .L13+52
 313 00fa 1A60     		str	r2, [r3]
 539:.\Generated_Source\PSoC4/cyfitter_cfg.c **** 
 540:.\Generated_Source\PSoC4/cyfitter_cfg.c **** 	/* IOPINS0_1 Starting address: CYDEV_PRT1_BASE */
 541:.\Generated_Source\PSoC4/cyfitter_cfg.c **** 	CY_SET_XTND_REG32((void CYFAR *)(CYDEV_PRT1_BASE), 0x00000040u);
 314              		.loc 1 541 0
 315 00fc 4022     		mov	r2, #64
 316 00fe 144B     		ldr	r3, .L13+56
 317 0100 1A60     		str	r2, [r3]
 542:.\Generated_Source\PSoC4/cyfitter_cfg.c **** 	CY_SET_XTND_REG32((void CYFAR *)(CYREG_PRT1_PC), 0x00180000u);
 318              		.loc 1 542 0
 319 0102 C022     		mov	r2, #192
 320 0104 5203     		lsl	r2, r2, #13
 321 0106 134B     		ldr	r3, .L13+60
 322 0108 1A60     		str	r2, [r3]
 543:.\Generated_Source\PSoC4/cyfitter_cfg.c **** 
 544:.\Generated_Source\PSoC4/cyfitter_cfg.c **** 	/* IOPINS0_3 Starting address: CYDEV_PRT3_BASE */
 545:.\Generated_Source\PSoC4/cyfitter_cfg.c **** 	CY_SET_XTND_REG32((void CYFAR *)(CYREG_PRT3_PC), 0x00000D80u);
 323              		.loc 1 545 0
 324 010a D822     		mov	r2, #216
 325 010c 1201     		lsl	r2, r2, #4
 326 010e 124B     		ldr	r3, .L13+64
 327 0110 1A60     		str	r2, [r3]
 546:.\Generated_Source\PSoC4/cyfitter_cfg.c **** 
 547:.\Generated_Source\PSoC4/cyfitter_cfg.c **** 
 548:.\Generated_Source\PSoC4/cyfitter_cfg.c **** 	/* Setup clocks based on selections from Clock DWR */
 549:.\Generated_Source\PSoC4/cyfitter_cfg.c **** 	ClockSetup();
 328              		.loc 1 549 0
 329 0112 FFF775FF 		bl	ClockSetup
 330              	.LVL24:
 550:.\Generated_Source\PSoC4/cyfitter_cfg.c **** 
 551:.\Generated_Source\PSoC4/cyfitter_cfg.c **** 	/* Perform basic analog initialization to defaults */
 552:.\Generated_Source\PSoC4/cyfitter_cfg.c **** 	AnalogSetDefault();
 553:.\Generated_Source\PSoC4/cyfitter_cfg.c **** 
 554:.\Generated_Source\PSoC4/cyfitter_cfg.c **** }
 331              		.loc 1 554 0
 332              		@ sp needed
 333              	.LVL25:
 334 0116 10BD     		pop	{r4, pc}
 335              	.L14:
 336              		.align	2
 337              	.L13:
 338 0118 1C700F40 		.word	1074753564
 339 011c 00000000 		.word	.LANCHOR0
 340 0120 04000140 		.word	1073807364
 341 0124 0C000140 		.word	1073807372
 342 0128 00500F40 		.word	1074745344
 343 012c 10500F40 		.word	1074745360
 344 0130 18500F40 		.word	1074745368
 345 0134 30500F40 		.word	1074745392
 346 0138 20000040 		.word	1073741856
 347 013c 00800F40 		.word	1074757632
 348 0140 00700F40 		.word	1074753536
 349 0144 01700F40 		.word	1074753537
 350 0148 00000440 		.word	1074003968
ARM GAS  C:\Users\Javier\AppData\Local\Temp\ccvAue1c.s 			page 17


 351 014c 08000440 		.word	1074003976
 352 0150 00010440 		.word	1074004224
 353 0154 08010440 		.word	1074004232
 354 0158 08030440 		.word	1074004744
 355              		.cfi_endproc
 356              	.LFE6:
 357              		.size	cyfitter_cfg, .-cyfitter_cfg
 358              		.section	.rodata
 359              		.align	2
 360              		.set	.LANCHOR0,. + 0
 361              		.type	cfg_memset_list.4739, %object
 362              		.size	cfg_memset_list.4739, 12
 363              	cfg_memset_list.4739:
 364 0000 00300F40 		.word	1074737152
 365 0004 0004     		.short	1024
 366 0006 00400F40 		.4byte	1074741248
 367 000a 0004     		.short	1024
 368              		.type	cy_cfg_addr_table.4733, %object
 369              		.size	cy_cfg_addr_table.4733, 24
 370              	cy_cfg_addr_table.4733:
 371 000c 2C300F40 		.word	1074737196
 372 0010 2F310F40 		.word	1074737455
 373 0014 30320F40 		.word	1074737712
 374 0018 35330F40 		.word	1074737973
 375 001c 07400F40 		.word	1074741255
 376 0020 08410F40 		.word	1074741512
 377              		.type	cy_cfg_data_table.4734, %object
 378              		.size	cy_cfg_data_table.4734, 414
 379              	cy_cfg_data_table.4734:
 380 0024 06       		.byte	6
 381 0025 01       		.byte	1
 382 0026 0E       		.byte	14
 383 0027 02       		.byte	2
 384 0028 16       		.byte	22
 385 0029 07       		.byte	7
 386 002a 17       		.byte	23
 387 002b 01       		.byte	1
 388 002c 1B       		.byte	27
 389 002d 03       		.byte	3
 390 002e 26       		.byte	38
 391 002f 04       		.byte	4
 392 0030 2F       		.byte	47
 393 0031 02       		.byte	2
 394 0032 30       		.byte	48
 395 0033 02       		.byte	2
 396 0034 32       		.byte	50
 397 0035 01       		.byte	1
 398 0036 33       		.byte	51
 399 0037 01       		.byte	1
 400 0038 34       		.byte	52
 401 0039 04       		.byte	4
 402 003a 37       		.byte	55
 403 003b 02       		.byte	2
 404 003c 3E       		.byte	62
 405 003d 15       		.byte	21
 406 003e 3F       		.byte	63
 407 003f 44       		.byte	68
ARM GAS  C:\Users\Javier\AppData\Local\Temp\ccvAue1c.s 			page 18


 408 0040 58       		.byte	88
 409 0041 04       		.byte	4
 410 0042 59       		.byte	89
 411 0043 04       		.byte	4
 412 0044 5B       		.byte	91
 413 0045 04       		.byte	4
 414 0046 5F       		.byte	95
 415 0047 01       		.byte	1
 416 0048 86       		.byte	-122
 417 0049 01       		.byte	1
 418 004a 8E       		.byte	-114
 419 004b 02       		.byte	2
 420 004c 93       		.byte	-109
 421 004d 01       		.byte	1
 422 004e 97       		.byte	-105
 423 004f 04       		.byte	4
 424 0050 9B       		.byte	-101
 425 0051 02       		.byte	2
 426 0052 9C       		.byte	-100
 427 0053 01       		.byte	1
 428 0054 9E       		.byte	-98
 429 0055 1E       		.byte	30
 430 0056 9F       		.byte	-97
 431 0057 08       		.byte	8
 432 0058 A2       		.byte	-94
 433 0059 10       		.byte	16
 434 005a A3       		.byte	-93
 435 005b 0F       		.byte	15
 436 005c A6       		.byte	-90
 437 005d 04       		.byte	4
 438 005e AA       		.byte	-86
 439 005f 08       		.byte	8
 440 0060 B0       		.byte	-80
 441 0061 03       		.byte	3
 442 0062 B1       		.byte	-79
 443 0063 01       		.byte	1
 444 0064 B2       		.byte	-78
 445 0065 04       		.byte	4
 446 0066 B3       		.byte	-77
 447 0067 02       		.byte	2
 448 0068 B4       		.byte	-76
 449 0069 08       		.byte	8
 450 006a B5       		.byte	-75
 451 006b 04       		.byte	4
 452 006c B6       		.byte	-74
 453 006d 10       		.byte	16
 454 006e B7       		.byte	-73
 455 006f 08       		.byte	8
 456 0070 BE       		.byte	-66
 457 0071 55       		.byte	85
 458 0072 BF       		.byte	-65
 459 0073 55       		.byte	85
 460 0074 D8       		.byte	-40
 461 0075 04       		.byte	4
 462 0076 D9       		.byte	-39
 463 0077 04       		.byte	4
 464 0078 DB       		.byte	-37
ARM GAS  C:\Users\Javier\AppData\Local\Temp\ccvAue1c.s 			page 19


 465 0079 04       		.byte	4
 466 007a DF       		.byte	-33
 467 007b 01       		.byte	1
 468 007c 00       		.byte	0
 469 007d 88       		.byte	-120
 470 007e 04       		.byte	4
 471 007f 02       		.byte	2
 472 0080 05       		.byte	5
 473 0081 02       		.byte	2
 474 0082 06       		.byte	6
 475 0083 04       		.byte	4
 476 0084 07       		.byte	7
 477 0085 29       		.byte	41
 478 0086 0A       		.byte	10
 479 0087 20       		.byte	32
 480 0088 0C       		.byte	12
 481 0089 80       		.byte	-128
 482 008a 10       		.byte	16
 483 008b 21       		.byte	33
 484 008c 13       		.byte	19
 485 008d 80       		.byte	-128
 486 008e 15       		.byte	21
 487 008f 01       		.byte	1
 488 0090 17       		.byte	23
 489 0091 14       		.byte	20
 490 0092 18       		.byte	24
 491 0093 04       		.byte	4
 492 0094 19       		.byte	25
 493 0095 01       		.byte	1
 494 0096 1A       		.byte	26
 495 0097 10       		.byte	16
 496 0098 1E       		.byte	30
 497 0099 AA       		.byte	-86
 498 009a 20       		.byte	32
 499 009b 01       		.byte	1
 500 009c 23       		.byte	35
 501 009d 10       		.byte	16
 502 009e 24       		.byte	36
 503 009f 02       		.byte	2
 504 00a0 25       		.byte	37
 505 00a1 04       		.byte	4
 506 00a2 27       		.byte	39
 507 00a3 88       		.byte	-120
 508 00a4 29       		.byte	41
 509 00a5 40       		.byte	64
 510 00a6 2C       		.byte	44
 511 00a7 80       		.byte	-128
 512 00a8 31       		.byte	49
 513 00a9 08       		.byte	8
 514 00aa 32       		.byte	50
 515 00ab 10       		.byte	16
 516 00ac 35       		.byte	53
 517 00ad 14       		.byte	20
 518 00ae 37       		.byte	55
 519 00af 42       		.byte	66
 520 00b0 45       		.byte	69
 521 00b1 04       		.byte	4
ARM GAS  C:\Users\Javier\AppData\Local\Temp\ccvAue1c.s 			page 20


 522 00b2 46       		.byte	70
 523 00b3 10       		.byte	16
 524 00b4 5E       		.byte	94
 525 00b5 AA       		.byte	-86
 526 00b6 64       		.byte	100
 527 00b7 01       		.byte	1
 528 00b8 65       		.byte	101
 529 00b9 02       		.byte	2
 530 00ba 66       		.byte	102
 531 00bb 14       		.byte	20
 532 00bc 68       		.byte	104
 533 00bd 80       		.byte	-128
 534 00be 6A       		.byte	106
 535 00bf 20       		.byte	32
 536 00c0 6D       		.byte	109
 537 00c1 01       		.byte	1
 538 00c2 6F       		.byte	111
 539 00c3 15       		.byte	21
 540 00c4 75       		.byte	117
 541 00c5 14       		.byte	20
 542 00c6 77       		.byte	119
 543 00c7 42       		.byte	66
 544 00c8 8B       		.byte	-117
 545 00c9 20       		.byte	32
 546 00ca C0       		.byte	-64
 547 00cb A5       		.byte	-91
 548 00cc C2       		.byte	-62
 549 00cd 84       		.byte	-124
 550 00ce C4       		.byte	-60
 551 00cf 74       		.byte	116
 552 00d0 CA       		.byte	-54
 553 00d1 88       		.byte	-120
 554 00d2 CC       		.byte	-52
 555 00d3 F6       		.byte	-10
 556 00d4 D6       		.byte	-42
 557 00d5 F0       		.byte	-16
 558 00d6 D8       		.byte	-40
 559 00d7 F0       		.byte	-16
 560 00d8 E4       		.byte	-28
 561 00d9 20       		.byte	32
 562 00da 06       		.byte	6
 563 00db 07       		.byte	7
 564 00dc 07       		.byte	7
 565 00dd 0F       		.byte	15
 566 00de 0A       		.byte	10
 567 00df 03       		.byte	3
 568 00e0 0B       		.byte	11
 569 00e1 03       		.byte	3
 570 00e2 12       		.byte	18
 571 00e3 01       		.byte	1
 572 00e4 13       		.byte	19
 573 00e5 07       		.byte	7
 574 00e6 16       		.byte	22
 575 00e7 0F       		.byte	15
 576 00e8 1A       		.byte	26
 577 00e9 0F       		.byte	15
 578 00ea 1B       		.byte	27
ARM GAS  C:\Users\Javier\AppData\Local\Temp\ccvAue1c.s 			page 21


 579 00eb 01       		.byte	1
 580 00ec 1E       		.byte	30
 581 00ed 0F       		.byte	15
 582 00ee 22       		.byte	34
 583 00ef 0F       		.byte	15
 584 00f0 2A       		.byte	42
 585 00f1 0F       		.byte	15
 586 00f2 30       		.byte	48
 587 00f3 02       		.byte	2
 588 00f4 31       		.byte	49
 589 00f5 08       		.byte	8
 590 00f6 32       		.byte	50
 591 00f7 08       		.byte	8
 592 00f8 33       		.byte	51
 593 00f9 04       		.byte	4
 594 00fa 34       		.byte	52
 595 00fb 04       		.byte	4
 596 00fc 35       		.byte	53
 597 00fd 02       		.byte	2
 598 00fe 36       		.byte	54
 599 00ff 01       		.byte	1
 600 0100 37       		.byte	55
 601 0101 01       		.byte	1
 602 0102 3A       		.byte	58
 603 0103 2A       		.byte	42
 604 0104 3B       		.byte	59
 605 0105 AA       		.byte	-86
 606 0106 3E       		.byte	62
 607 0107 40       		.byte	64
 608 0108 58       		.byte	88
 609 0109 04       		.byte	4
 610 010a 59       		.byte	89
 611 010b 04       		.byte	4
 612 010c 5C       		.byte	92
 613 010d 88       		.byte	-120
 614 010e 5F       		.byte	95
 615 010f 31       		.byte	49
 616 0110 82       		.byte	-126
 617 0111 03       		.byte	3
 618 0112 83       		.byte	-125
 619 0113 02       		.byte	2
 620 0114 87       		.byte	-121
 621 0115 01       		.byte	1
 622 0116 93       		.byte	-109
 623 0117 04       		.byte	4
 624 0118 9A       		.byte	-102
 625 0119 01       		.byte	1
 626 011a 9B       		.byte	-101
 627 011b 07       		.byte	7
 628 011c 9E       		.byte	-98
 629 011d 07       		.byte	7
 630 011e B0       		.byte	-80
 631 011f 04       		.byte	4
 632 0120 B1       		.byte	-79
 633 0121 02       		.byte	2
 634 0122 B3       		.byte	-77
 635 0123 01       		.byte	1
ARM GAS  C:\Users\Javier\AppData\Local\Temp\ccvAue1c.s 			page 22


 636 0124 B4       		.byte	-76
 637 0125 02       		.byte	2
 638 0126 B6       		.byte	-74
 639 0127 01       		.byte	1
 640 0128 B7       		.byte	-73
 641 0129 04       		.byte	4
 642 012a BA       		.byte	-70
 643 012b A2       		.byte	-94
 644 012c BB       		.byte	-69
 645 012d 30       		.byte	48
 646 012e BF       		.byte	-65
 647 012f 45       		.byte	69
 648 0130 D8       		.byte	-40
 649 0131 04       		.byte	4
 650 0132 D9       		.byte	-39
 651 0133 04       		.byte	4
 652 0134 DB       		.byte	-37
 653 0135 04       		.byte	4
 654 0136 DC       		.byte	-36
 655 0137 88       		.byte	-120
 656 0138 DF       		.byte	-33
 657 0139 31       		.byte	49
 658 013a 01       		.byte	1
 659 013b 02       		.byte	2
 660 013c 05       		.byte	5
 661 013d 14       		.byte	20
 662 013e 09       		.byte	9
 663 013f 80       		.byte	-128
 664 0140 0A       		.byte	10
 665 0141 04       		.byte	4
 666 0142 0E       		.byte	14
 667 0143 62       		.byte	98
 668 0144 0F       		.byte	15
 669 0145 04       		.byte	4
 670 0146 17       		.byte	23
 671 0147 12       		.byte	18
 672 0148 19       		.byte	25
 673 0149 82       		.byte	-126
 674 014a 1A       		.byte	26
 675 014b 04       		.byte	4
 676 014c 1D       		.byte	29
 677 014d 94       		.byte	-108
 678 014e 1E       		.byte	30
 679 014f 40       		.byte	64
 680 0150 20       		.byte	32
 681 0151 40       		.byte	64
 682 0152 22       		.byte	34
 683 0153 C4       		.byte	-60
 684 0154 23       		.byte	35
 685 0155 04       		.byte	4
 686 0156 24       		.byte	36
 687 0157 10       		.byte	16
 688 0158 26       		.byte	38
 689 0159 11       		.byte	17
 690 015a 27       		.byte	39
 691 015b 12       		.byte	18
 692 015c 30       		.byte	48
ARM GAS  C:\Users\Javier\AppData\Local\Temp\ccvAue1c.s 			page 23


 693 015d 02       		.byte	2
 694 015e 32       		.byte	50
 695 015f 10       		.byte	16
 696 0160 36       		.byte	54
 697 0161 11       		.byte	17
 698 0162 38       		.byte	56
 699 0163 02       		.byte	2
 700 0164 39       		.byte	57
 701 0165 04       		.byte	4
 702 0166 3C       		.byte	60
 703 0167 10       		.byte	16
 704 0168 3F       		.byte	63
 705 0169 04       		.byte	4
 706 016a 59       		.byte	89
 707 016b 01       		.byte	1
 708 016c 5A       		.byte	90
 709 016d 98       		.byte	-104
 710 016e 60       		.byte	96
 711 016f 45       		.byte	69
 712 0170 63       		.byte	99
 713 0171 10       		.byte	16
 714 0172 68       		.byte	104
 715 0173 46       		.byte	70
 716 0174 69       		.byte	105
 717 0175 04       		.byte	4
 718 0176 70       		.byte	112
 719 0177 21       		.byte	33
 720 0178 71       		.byte	113
 721 0179 48       		.byte	72
 722 017a 7B       		.byte	123
 723 017b 80       		.byte	-128
 724 017c 7F       		.byte	127
 725 017d 80       		.byte	-128
 726 017e 83       		.byte	-125
 727 017f 80       		.byte	-128
 728 0180 8E       		.byte	-114
 729 0181 80       		.byte	-128
 730 0182 90       		.byte	-112
 731 0183 05       		.byte	5
 732 0184 92       		.byte	-110
 733 0185 30       		.byte	48
 734 0186 93       		.byte	-109
 735 0187 10       		.byte	16
 736 0188 99       		.byte	-103
 737 0189 01       		.byte	1
 738 018a 9D       		.byte	-99
 739 018b C0       		.byte	-64
 740 018c A4       		.byte	-92
 741 018d 64       		.byte	100
 742 018e A5       		.byte	-91
 743 018f 08       		.byte	8
 744 0190 AD       		.byte	-83
 745 0191 80       		.byte	-128
 746 0192 C0       		.byte	-64
 747 0193 68       		.byte	104
 748 0194 C2       		.byte	-62
 749 0195 F3       		.byte	-13
ARM GAS  C:\Users\Javier\AppData\Local\Temp\ccvAue1c.s 			page 24


 750 0196 C4       		.byte	-60
 751 0197 50       		.byte	80
 752 0198 CC       		.byte	-52
 753 0199 A5       		.byte	-91
 754 019a CE       		.byte	-50
 755 019b 63       		.byte	99
 756 019c D6       		.byte	-42
 757 019d 0F       		.byte	15
 758 019e D8       		.byte	-40
 759 019f 0F       		.byte	15
 760 01a0 DE       		.byte	-34
 761 01a1 81       		.byte	-127
 762 01a2 E2       		.byte	-30
 763 01a3 40       		.byte	64
 764 01a4 0F       		.byte	15
 765 01a5 04       		.byte	4
 766 01a6 1B       		.byte	27
 767 01a7 20       		.byte	32
 768 01a8 6F       		.byte	111
 769 01a9 02       		.byte	2
 770 01aa 8B       		.byte	-117
 771 01ab 04       		.byte	4
 772 01ac C2       		.byte	-62
 773 01ad 80       		.byte	-128
 774 01ae C6       		.byte	-58
 775 01af 40       		.byte	64
 776 01b0 DA       		.byte	-38
 777 01b1 80       		.byte	-128
 778 01b2 63       		.byte	99
 779 01b3 08       		.byte	8
 780 01b4 83       		.byte	-125
 781 01b5 20       		.byte	32
 782 01b6 8F       		.byte	-113
 783 01b7 04       		.byte	4
 784 01b8 A3       		.byte	-93
 785 01b9 20       		.byte	32
 786 01ba AF       		.byte	-81
 787 01bb 02       		.byte	2
 788 01bc D8       		.byte	-40
 789 01bd 40       		.byte	64
 790 01be E4       		.byte	-28
 791 01bf 20       		.byte	32
 792 01c0 EA       		.byte	-22
 793 01c1 10       		.byte	16
 794 01c2 0000     		.text
 795              	.Letext0:
 796              		.file 2 "c:\\program files (x86)\\cypress\\psoc creator\\3.3\\psoc creator\\import\\gnu\\arm\\4.9.
 797              		.file 3 ".\\Generated_Source\\PSoC4\\cytypes.h"
 798              		.file 4 ".\\Generated_Source\\PSoC4\\CyLib.h"