ARM GAS  C:\Users\Javier\AppData\Local\Temp\ccO8tKZX.s 			page 1


   1              		.cpu cortex-m0
   2              		.fpu softvfp
   3              		.eabi_attribute 20, 1
   4              		.eabi_attribute 21, 1
   5              		.eabi_attribute 23, 3
   6              		.eabi_attribute 24, 1
   7              		.eabi_attribute 25, 1
   8              		.eabi_attribute 26, 1
   9              		.eabi_attribute 30, 1
  10              		.eabi_attribute 34, 0
  11              		.eabi_attribute 18, 4
  12              		.code	16
  13              		.file	"gnome_execute.c"
  14              		.text
  15              	.Ltext0:
  16              		.cfi_sections	.debug_frame
  17              		.section	.text.clear_c_inst,"ax",%progbits
  18              		.align	2
  19              		.global	clear_c_inst
  20              		.code	16
  21              		.thumb_func
  22              		.type	clear_c_inst, %function
  23              	clear_c_inst:
  24              	.LFB34:
  25              		.file 1 ".\\gnome_execute.c"
   1:.\gnome_execute.c **** /* ========================================
   2:.\gnome_execute.c ****  *
   3:.\gnome_execute.c ****  * Copyright YOUR COMPANY, THE YEAR
   4:.\gnome_execute.c ****  * All Rights Reserved
   5:.\gnome_execute.c ****  * UNPUBLISHED, LICENSED SOFTWARE.
   6:.\gnome_execute.c ****  *
   7:.\gnome_execute.c ****  * CONFIDENTIAL AND PROPRIETARY INFORMATION
   8:.\gnome_execute.c ****  * WHICH IS THE PROPERTY OF your company.
   9:.\gnome_execute.c ****  *
  10:.\gnome_execute.c ****  * ========================================
  11:.\gnome_execute.c **** */
  12:.\gnome_execute.c **** 
  13:.\gnome_execute.c **** #include "gnome_execute.h"
  14:.\gnome_execute.c **** #include "gnome_memory.h"
  15:.\gnome_execute.c **** 
  16:.\gnome_execute.c **** // CLEAR_C
  17:.\gnome_execute.c **** // C: Pone a 0
  18:.\gnome_execute.c **** // Z: No Actualiza
  19:.\gnome_execute.c **** void clear_c_inst() {
  26              		.loc 1 19 0
  27              		.cfi_startproc
  20:.\gnome_execute.c ****     current_context->flags.C = 0;
  28              		.loc 1 20 0
  29 0000 024B     		ldr	r3, .L2
  30 0002 1B68     		ldr	r3, [r3]
  31 0004 0022     		mov	r2, #0
  32 0006 5A70     		strb	r2, [r3, #1]
  21:.\gnome_execute.c **** }
  33              		.loc 1 21 0
  34              		@ sp needed
  35 0008 7047     		bx	lr
  36              	.L3:
ARM GAS  C:\Users\Javier\AppData\Local\Temp\ccO8tKZX.s 			page 2


  37 000a C046     		.align	2
  38              	.L2:
  39 000c 00000000 		.word	current_context
  40              		.cfi_endproc
  41              	.LFE34:
  42              		.size	clear_c_inst, .-clear_c_inst
  43              		.section	.text.set_c_inst,"ax",%progbits
  44              		.align	2
  45              		.global	set_c_inst
  46              		.code	16
  47              		.thumb_func
  48              		.type	set_c_inst, %function
  49              	set_c_inst:
  50              	.LFB35:
  22:.\gnome_execute.c **** 
  23:.\gnome_execute.c **** // SET_C
  24:.\gnome_execute.c **** // C: Pone a 1
  25:.\gnome_execute.c **** // Z: No Actualiza
  26:.\gnome_execute.c **** void set_c_inst() {
  51              		.loc 1 26 0
  52              		.cfi_startproc
  27:.\gnome_execute.c ****     current_context->flags.C = 1;
  53              		.loc 1 27 0
  54 0000 024B     		ldr	r3, .L5
  55 0002 1B68     		ldr	r3, [r3]
  56 0004 0122     		mov	r2, #1
  57 0006 5A70     		strb	r2, [r3, #1]
  28:.\gnome_execute.c **** }
  58              		.loc 1 28 0
  59              		@ sp needed
  60 0008 7047     		bx	lr
  61              	.L6:
  62 000a C046     		.align	2
  63              	.L5:
  64 000c 00000000 		.word	current_context
  65              		.cfi_endproc
  66              	.LFE35:
  67              		.size	set_c_inst, .-set_c_inst
  68              		.section	.text.skip_c_inst,"ax",%progbits
  69              		.align	2
  70              		.global	skip_c_inst
  71              		.code	16
  72              		.thumb_func
  73              		.type	skip_c_inst, %function
  74              	skip_c_inst:
  75              	.LFB36:
  29:.\gnome_execute.c **** 
  30:.\gnome_execute.c **** // SKIP_C
  31:.\gnome_execute.c **** // C: No Actualiza
  32:.\gnome_execute.c **** // Z: No Actualiza
  33:.\gnome_execute.c **** void skip_c_inst() {
  76              		.loc 1 33 0
  77              		.cfi_startproc
  34:.\gnome_execute.c ****     if (current_context->flags.C)
  78              		.loc 1 34 0
  79 0000 044B     		ldr	r3, .L9
  80 0002 1B68     		ldr	r3, [r3]
ARM GAS  C:\Users\Javier\AppData\Local\Temp\ccO8tKZX.s 			page 3


  81 0004 5A78     		ldrb	r2, [r3, #1]
  82 0006 002A     		cmp	r2, #0
  83 0008 02D0     		beq	.L7
  35:.\gnome_execute.c ****         current_context->PC++;
  84              		.loc 1 35 0
  85 000a DA78     		ldrb	r2, [r3, #3]
  86 000c 0132     		add	r2, r2, #1
  87 000e DA70     		strb	r2, [r3, #3]
  88              	.L7:
  36:.\gnome_execute.c **** }
  89              		.loc 1 36 0
  90              		@ sp needed
  91 0010 7047     		bx	lr
  92              	.L10:
  93 0012 C046     		.align	2
  94              	.L9:
  95 0014 00000000 		.word	current_context
  96              		.cfi_endproc
  97              	.LFE36:
  98              		.size	skip_c_inst, .-skip_c_inst
  99              		.section	.text.skip_z_inst,"ax",%progbits
 100              		.align	2
 101              		.global	skip_z_inst
 102              		.code	16
 103              		.thumb_func
 104              		.type	skip_z_inst, %function
 105              	skip_z_inst:
 106              	.LFB37:
  37:.\gnome_execute.c **** 
  38:.\gnome_execute.c **** // SKIP_Z
  39:.\gnome_execute.c **** // C: No Actualiza
  40:.\gnome_execute.c **** // Z: No Actualiza
  41:.\gnome_execute.c **** void skip_z_inst() {
 107              		.loc 1 41 0
 108              		.cfi_startproc
  42:.\gnome_execute.c ****     if (current_context->flags.Z)
 109              		.loc 1 42 0
 110 0000 044B     		ldr	r3, .L13
 111 0002 1B68     		ldr	r3, [r3]
 112 0004 9A78     		ldrb	r2, [r3, #2]
 113 0006 002A     		cmp	r2, #0
 114 0008 02D0     		beq	.L11
  43:.\gnome_execute.c ****         current_context->PC++;
 115              		.loc 1 43 0
 116 000a DA78     		ldrb	r2, [r3, #3]
 117 000c 0132     		add	r2, r2, #1
 118 000e DA70     		strb	r2, [r3, #3]
 119              	.L11:
  44:.\gnome_execute.c **** }
 120              		.loc 1 44 0
 121              		@ sp needed
 122 0010 7047     		bx	lr
 123              	.L14:
 124 0012 C046     		.align	2
 125              	.L13:
 126 0014 00000000 		.word	current_context
 127              		.cfi_endproc
ARM GAS  C:\Users\Javier\AppData\Local\Temp\ccO8tKZX.s 			page 4


 128              	.LFE37:
 129              		.size	skip_z_inst, .-skip_z_inst
 130              		.section	.text.push_inst,"ax",%progbits
 131              		.align	2
 132              		.global	push_inst
 133              		.code	16
 134              		.thumb_func
 135              		.type	push_inst, %function
 136              	push_inst:
 137              	.LFB38:
  45:.\gnome_execute.c **** 
  46:.\gnome_execute.c **** // Push
  47:.\gnome_execute.c **** // C: No Actualiza
  48:.\gnome_execute.c **** // Z: No Actualiza
  49:.\gnome_execute.c **** void push_inst() {
 138              		.loc 1 49 0
 139              		.cfi_startproc
 140 0000 10B5     		push	{r4, lr}
 141              		.cfi_def_cfa_offset 8
 142              		.cfi_offset 4, -8
 143              		.cfi_offset 14, -4
  50:.\gnome_execute.c ****     current_context->ind_addr_reg.data &= 0x0F << 4* (!(0x01 & current_context->ind_addr_reg.ptr));
 144              		.loc 1 50 0
 145 0002 0A4B     		ldr	r3, .L18
 146 0004 1A68     		ldr	r2, [r3]
 147 0006 517A     		ldrb	r1, [r2, #9]
 148 0008 907A     		ldrb	r0, [r2, #10]
 149 000a 0123     		mov	r3, #1
 150 000c 0340     		and	r3, r0
 151 000e 01D1     		bne	.L17
 152 0010 F024     		mov	r4, #240
 153 0012 00E0     		b	.L16
 154              	.L17:
 155 0014 0F24     		mov	r4, #15
 156              	.L16:
 157              		.loc 1 50 0 is_stmt 0 discriminator 4
 158 0016 0C40     		and	r4, r1
  51:.\gnome_execute.c ****     current_context->ind_addr_reg.data += current_context->accumulator << 4*(0x01 & current_context
 159              		.loc 1 51 0 is_stmt 1 discriminator 4
 160 0018 1178     		ldrb	r1, [r2]
 161 001a 9B00     		lsl	r3, r3, #2
 162 001c 9940     		lsl	r1, r1, r3
 163 001e 6318     		add	r3, r4, r1
 164 0020 5372     		strb	r3, [r2, #9]
  52:.\gnome_execute.c ****     current_context->ind_addr_reg.ptr = !current_context->ind_addr_reg.ptr;
 165              		.loc 1 52 0 discriminator 4
 166 0022 4342     		neg	r3, r0
 167 0024 4341     		adc	r3, r3, r0
 168 0026 9372     		strb	r3, [r2, #10]
  53:.\gnome_execute.c **** }
 169              		.loc 1 53 0 discriminator 4
 170              		@ sp needed
 171 0028 10BD     		pop	{r4, pc}
 172              	.L19:
 173 002a C046     		.align	2
 174              	.L18:
 175 002c 00000000 		.word	current_context
ARM GAS  C:\Users\Javier\AppData\Local\Temp\ccO8tKZX.s 			page 5


 176              		.cfi_endproc
 177              	.LFE38:
 178              		.size	push_inst, .-push_inst
 179              		.section	.text.rts_inst,"ax",%progbits
 180              		.align	2
 181              		.global	rts_inst
 182              		.code	16
 183              		.thumb_func
 184              		.type	rts_inst, %function
 185              	rts_inst:
 186              	.LFB39:
  54:.\gnome_execute.c **** 
  55:.\gnome_execute.c **** // RTS
  56:.\gnome_execute.c **** // C: No Actualiza
  57:.\gnome_execute.c **** // Z: No Actualiza
  58:.\gnome_execute.c **** void rts_inst() {
 187              		.loc 1 58 0
 188              		.cfi_startproc
  59:.\gnome_execute.c ****     current_context->PC = current_context->stack.data[current_context->stack.ptr];
 189              		.loc 1 59 0
 190 0000 0749     		ldr	r1, .L22
 191 0002 0B68     		ldr	r3, [r1]
 192 0004 1A7A     		ldrb	r2, [r3, #8]
 193 0006 9A18     		add	r2, r3, r2
 194 0008 1279     		ldrb	r2, [r2, #4]
 195 000a DA70     		strb	r2, [r3, #3]
  60:.\gnome_execute.c ****     current_context->stack.ptr--;
 196              		.loc 1 60 0
 197 000c 0A68     		ldr	r2, [r1]
 198 000e 137A     		ldrb	r3, [r2, #8]
 199 0010 013B     		sub	r3, r3, #1
 200 0012 DBB2     		uxtb	r3, r3
 201 0014 1372     		strb	r3, [r2, #8]
  61:.\gnome_execute.c ****     if(current_context->stack.ptr >= GNOME_STACK_SIZE) current_context->stack.ptr = GNOME_STACK_SIZ
 202              		.loc 1 61 0
 203 0016 032B     		cmp	r3, #3
 204 0018 01D9     		bls	.L20
 205              		.loc 1 61 0 is_stmt 0 discriminator 1
 206 001a 0323     		mov	r3, #3
 207 001c 1372     		strb	r3, [r2, #8]
 208              	.L20:
  62:.\gnome_execute.c **** }
 209              		.loc 1 62 0 is_stmt 1
 210              		@ sp needed
 211 001e 7047     		bx	lr
 212              	.L23:
 213              		.align	2
 214              	.L22:
 215 0020 00000000 		.word	current_context
 216              		.cfi_endproc
 217              	.LFE39:
 218              		.size	rts_inst, .-rts_inst
 219              		.section	.text.jsr_inst,"ax",%progbits
 220              		.align	2
 221              		.global	jsr_inst
 222              		.code	16
 223              		.thumb_func
ARM GAS  C:\Users\Javier\AppData\Local\Temp\ccO8tKZX.s 			page 6


 224              		.type	jsr_inst, %function
 225              	jsr_inst:
 226              	.LFB40:
  63:.\gnome_execute.c **** 
  64:.\gnome_execute.c **** // JSR
  65:.\gnome_execute.c **** // C: No Actualiza
  66:.\gnome_execute.c **** // Z: No Actualiza
  67:.\gnome_execute.c **** void jsr_inst() {
 227              		.loc 1 67 0
 228              		.cfi_startproc
  68:.\gnome_execute.c ****     current_context->stack.ptr++;
 229              		.loc 1 68 0
 230 0000 084B     		ldr	r3, .L26
 231 0002 1B68     		ldr	r3, [r3]
 232 0004 1A7A     		ldrb	r2, [r3, #8]
 233 0006 0132     		add	r2, r2, #1
 234 0008 D2B2     		uxtb	r2, r2
 235 000a 1A72     		strb	r2, [r3, #8]
  69:.\gnome_execute.c ****     if(current_context->stack.ptr >= GNOME_STACK_SIZE) 
 236              		.loc 1 69 0
 237 000c 032A     		cmp	r2, #3
 238 000e 01D9     		bls	.L25
  70:.\gnome_execute.c ****         current_context->stack.ptr = 0;
 239              		.loc 1 70 0
 240 0010 0022     		mov	r2, #0
 241 0012 1A72     		strb	r2, [r3, #8]
 242              	.L25:
  71:.\gnome_execute.c ****     current_context->stack.data[current_context->stack.ptr] = current_context->PC;
 243              		.loc 1 71 0
 244 0014 1A7A     		ldrb	r2, [r3, #8]
 245 0016 D978     		ldrb	r1, [r3, #3]
 246 0018 9A18     		add	r2, r3, r2
 247 001a 1171     		strb	r1, [r2, #4]
  72:.\gnome_execute.c ****     current_context->PC = current_context->ind_addr_reg.data;
 248              		.loc 1 72 0
 249 001c 5A7A     		ldrb	r2, [r3, #9]
 250 001e DA70     		strb	r2, [r3, #3]
  73:.\gnome_execute.c **** }
 251              		.loc 1 73 0
 252              		@ sp needed
 253 0020 7047     		bx	lr
 254              	.L27:
 255 0022 C046     		.align	2
 256              	.L26:
 257 0024 00000000 		.word	current_context
 258              		.cfi_endproc
 259              	.LFE40:
 260              		.size	jsr_inst, .-jsr_inst
 261              		.section	.text.rti_inst,"ax",%progbits
 262              		.align	2
 263              		.global	rti_inst
 264              		.code	16
 265              		.thumb_func
 266              		.type	rti_inst, %function
 267              	rti_inst:
 268              	.LFB41:
  74:.\gnome_execute.c **** 
ARM GAS  C:\Users\Javier\AppData\Local\Temp\ccO8tKZX.s 			page 7


  75:.\gnome_execute.c **** // RTI
  76:.\gnome_execute.c **** // C: No Actualiza
  77:.\gnome_execute.c **** // Z: No Actualiza
  78:.\gnome_execute.c **** // Sets return flag
  79:.\gnome_execute.c **** void rti_inst() {
 269              		.loc 1 79 0
 270              		.cfi_startproc
  80:.\gnome_execute.c ****     current_context = &normal_context;
 271              		.loc 1 80 0
 272 0000 014A     		ldr	r2, .L29
 273 0002 024B     		ldr	r3, .L29+4
 274 0004 1A60     		str	r2, [r3]
  81:.\gnome_execute.c **** }
 275              		.loc 1 81 0
 276              		@ sp needed
 277 0006 7047     		bx	lr
 278              	.L30:
 279              		.align	2
 280              	.L29:
 281 0008 00000000 		.word	normal_context
 282 000c 00000000 		.word	current_context
 283              		.cfi_endproc
 284              	.LFE41:
 285              		.size	rti_inst, .-rti_inst
 286              		.section	.text.branch_inst,"ax",%progbits
 287              		.align	2
 288              		.global	branch_inst
 289              		.code	16
 290              		.thumb_func
 291              		.type	branch_inst, %function
 292              	branch_inst:
 293              	.LFB42:
  82:.\gnome_execute.c **** 
  83:.\gnome_execute.c **** // BRANCH
  84:.\gnome_execute.c **** // C: No Actualiza
  85:.\gnome_execute.c **** // Z: No Actualiza
  86:.\gnome_execute.c **** void branch_inst() {
 294              		.loc 1 86 0
 295              		.cfi_startproc
  87:.\gnome_execute.c ****     current_context->PC = current_context->ind_addr_reg.data;
 296              		.loc 1 87 0
 297 0000 024B     		ldr	r3, .L32
 298 0002 1B68     		ldr	r3, [r3]
 299 0004 5A7A     		ldrb	r2, [r3, #9]
 300 0006 DA70     		strb	r2, [r3, #3]
  88:.\gnome_execute.c **** }
 301              		.loc 1 88 0
 302              		@ sp needed
 303 0008 7047     		bx	lr
 304              	.L33:
 305 000a C046     		.align	2
 306              	.L32:
 307 000c 00000000 		.word	current_context
 308              		.cfi_endproc
 309              	.LFE42:
 310              		.size	branch_inst, .-branch_inst
 311              		.section	.text.ror_inst,"ax",%progbits
ARM GAS  C:\Users\Javier\AppData\Local\Temp\ccO8tKZX.s 			page 8


 312              		.align	2
 313              		.global	ror_inst
 314              		.code	16
 315              		.thumb_func
 316              		.type	ror_inst, %function
 317              	ror_inst:
 318              	.LFB43:
  89:.\gnome_execute.c **** 
  90:.\gnome_execute.c **** // ROR
  91:.\gnome_execute.c **** // C: Actualiza
  92:.\gnome_execute.c **** // Z: Actualiza
  93:.\gnome_execute.c **** void ror_inst() {
 319              		.loc 1 93 0
 320              		.cfi_startproc
  94:.\gnome_execute.c ****     uint8_t carry = current_context->flags.C;
 321              		.loc 1 94 0
 322 0000 0B4B     		ldr	r3, .L37
 323 0002 1A68     		ldr	r2, [r3]
 324 0004 5378     		ldrb	r3, [r2, #1]
 325              	.LVL0:
  95:.\gnome_execute.c ****     
  96:.\gnome_execute.c ****     if (current_context->accumulator & 0x01)
 326              		.loc 1 96 0
 327 0006 1178     		ldrb	r1, [r2]
 328 0008 C907     		lsl	r1, r1, #31
 329 000a 02D5     		bpl	.L35
  97:.\gnome_execute.c ****         current_context->flags.C = 1;
 330              		.loc 1 97 0
 331 000c 0121     		mov	r1, #1
 332 000e 5170     		strb	r1, [r2, #1]
 333 0010 01E0     		b	.L36
 334              	.L35:
  98:.\gnome_execute.c ****     else 
  99:.\gnome_execute.c ****         current_context->flags.C = 0;
 335              		.loc 1 99 0
 336 0012 0021     		mov	r1, #0
 337 0014 5170     		strb	r1, [r2, #1]
 338              	.L36:
 100:.\gnome_execute.c ****     
 101:.\gnome_execute.c ****     current_context->accumulator = (current_context->accumulator >> 1) + 0x08 * carry;
 339              		.loc 1 101 0
 340 0016 0649     		ldr	r1, .L37
 341 0018 0868     		ldr	r0, [r1]
 342 001a 0278     		ldrb	r2, [r0]
 343 001c 5208     		lsr	r2, r2, #1
 344 001e DB00     		lsl	r3, r3, #3
 345              	.LVL1:
 346 0020 D318     		add	r3, r2, r3
 347 0022 0370     		strb	r3, [r0]
 102:.\gnome_execute.c ****     
 103:.\gnome_execute.c ****     current_context->flags.Z = current_context->accumulator == 0;
 348              		.loc 1 103 0
 349 0024 0A68     		ldr	r2, [r1]
 350 0026 1378     		ldrb	r3, [r2]
 351 0028 5942     		neg	r1, r3
 352 002a 4B41     		adc	r3, r3, r1
 353 002c 9370     		strb	r3, [r2, #2]
ARM GAS  C:\Users\Javier\AppData\Local\Temp\ccO8tKZX.s 			page 9


 104:.\gnome_execute.c **** }
 354              		.loc 1 104 0
 355              		@ sp needed
 356 002e 7047     		bx	lr
 357              	.L38:
 358              		.align	2
 359              	.L37:
 360 0030 00000000 		.word	current_context
 361              		.cfi_endproc
 362              	.LFE43:
 363              		.size	ror_inst, .-ror_inst
 364              		.section	.text.rol_inst,"ax",%progbits
 365              		.align	2
 366              		.global	rol_inst
 367              		.code	16
 368              		.thumb_func
 369              		.type	rol_inst, %function
 370              	rol_inst:
 371              	.LFB44:
 105:.\gnome_execute.c **** 
 106:.\gnome_execute.c **** // ROL
 107:.\gnome_execute.c **** // C: Actualiza
 108:.\gnome_execute.c **** // Z: Actualiza
 109:.\gnome_execute.c **** void rol_inst() {
 372              		.loc 1 109 0
 373              		.cfi_startproc
 374 0000 10B5     		push	{r4, lr}
 375              		.cfi_def_cfa_offset 8
 376              		.cfi_offset 4, -8
 377              		.cfi_offset 14, -4
 110:.\gnome_execute.c ****     uint8_t carry = current_context->flags.C;
 378              		.loc 1 110 0
 379 0002 0C4B     		ldr	r3, .L42
 380 0004 1A68     		ldr	r2, [r3]
 381 0006 5478     		ldrb	r4, [r2, #1]
 382              	.LVL2:
 111:.\gnome_execute.c ****     if (current_context->accumulator & 0x08)
 383              		.loc 1 111 0
 384 0008 1378     		ldrb	r3, [r2]
 385 000a 1B07     		lsl	r3, r3, #28
 386 000c 02D5     		bpl	.L40
 112:.\gnome_execute.c ****         current_context->flags.C = 1;
 387              		.loc 1 112 0
 388 000e 0123     		mov	r3, #1
 389 0010 5370     		strb	r3, [r2, #1]
 390 0012 01E0     		b	.L41
 391              	.L40:
 113:.\gnome_execute.c ****     else 
 114:.\gnome_execute.c ****         current_context->flags.C = 0;
 392              		.loc 1 114 0
 393 0014 0023     		mov	r3, #0
 394 0016 5370     		strb	r3, [r2, #1]
 395              	.L41:
 115:.\gnome_execute.c ****     
 116:.\gnome_execute.c ****     current_context->accumulator = ((current_context->accumulator << 1) & 0x0F) + carry;
 396              		.loc 1 116 0
 397 0018 0649     		ldr	r1, .L42
ARM GAS  C:\Users\Javier\AppData\Local\Temp\ccO8tKZX.s 			page 10


 398 001a 0868     		ldr	r0, [r1]
 399 001c 0378     		ldrb	r3, [r0]
 400 001e 5A00     		lsl	r2, r3, #1
 401 0020 0F23     		mov	r3, #15
 402 0022 1340     		and	r3, r2
 403 0024 E318     		add	r3, r4, r3
 404 0026 0370     		strb	r3, [r0]
 117:.\gnome_execute.c ****     
 118:.\gnome_execute.c ****     current_context->flags.Z = current_context->accumulator == 0;
 405              		.loc 1 118 0
 406 0028 0A68     		ldr	r2, [r1]
 407 002a 1378     		ldrb	r3, [r2]
 408 002c 5942     		neg	r1, r3
 409 002e 4B41     		adc	r3, r3, r1
 410 0030 9370     		strb	r3, [r2, #2]
 119:.\gnome_execute.c **** }
 411              		.loc 1 119 0
 412              		@ sp needed
 413              	.LVL3:
 414 0032 10BD     		pop	{r4, pc}
 415              	.L43:
 416              		.align	2
 417              	.L42:
 418 0034 00000000 		.word	current_context
 419              		.cfi_endproc
 420              	.LFE44:
 421              		.size	rol_inst, .-rol_inst
 422              		.section	.text.load_d_inst,"ax",%progbits
 423              		.align	2
 424              		.global	load_d_inst
 425              		.code	16
 426              		.thumb_func
 427              		.type	load_d_inst, %function
 428              	load_d_inst:
 429              	.LFB45:
 120:.\gnome_execute.c **** 
 121:.\gnome_execute.c **** // STORE_RD
 122:.\gnome_execute.c **** // C: No Actualiza
 123:.\gnome_execute.c **** // Z: Actualiza
 124:.\gnome_execute.c **** void load_d_inst(uint8_t immediate) {
 430              		.loc 1 124 0
 431              		.cfi_startproc
 432              	.LVL4:
 125:.\gnome_execute.c ****     current_context->accumulator = 0x0F & immediate;
 433              		.loc 1 125 0
 434 0000 054B     		ldr	r3, .L45
 435 0002 0F22     		mov	r2, #15
 436 0004 1040     		and	r0, r2
 437              	.LVL5:
 438 0006 1A68     		ldr	r2, [r3]
 439 0008 1070     		strb	r0, [r2]
 126:.\gnome_execute.c ****     
 127:.\gnome_execute.c ****     current_context->flags.Z = current_context->accumulator == 0;
 440              		.loc 1 127 0
 441 000a 1A68     		ldr	r2, [r3]
 442 000c 1178     		ldrb	r1, [r2]
 443 000e 4B42     		neg	r3, r1
ARM GAS  C:\Users\Javier\AppData\Local\Temp\ccO8tKZX.s 			page 11


 444 0010 4B41     		adc	r3, r3, r1
 445 0012 9370     		strb	r3, [r2, #2]
 128:.\gnome_execute.c **** }
 446              		.loc 1 128 0
 447              		@ sp needed
 448 0014 7047     		bx	lr
 449              	.L46:
 450 0016 C046     		.align	2
 451              	.L45:
 452 0018 00000000 		.word	current_context
 453              		.cfi_endproc
 454              	.LFE45:
 455              		.size	load_d_inst, .-load_d_inst
 456              		.section	.text.add_d_inst,"ax",%progbits
 457              		.align	2
 458              		.global	add_d_inst
 459              		.code	16
 460              		.thumb_func
 461              		.type	add_d_inst, %function
 462              	add_d_inst:
 463              	.LFB46:
 129:.\gnome_execute.c **** 
 130:.\gnome_execute.c **** // STORE_RD
 131:.\gnome_execute.c **** // C: Actualiza
 132:.\gnome_execute.c **** // Z: Actualiza
 133:.\gnome_execute.c **** void add_d_inst(uint8_t immediate) {
 464              		.loc 1 133 0
 465              		.cfi_startproc
 466              	.LVL6:
 467 0000 30B5     		push	{r4, r5, lr}
 468              		.cfi_def_cfa_offset 12
 469              		.cfi_offset 4, -12
 470              		.cfi_offset 5, -8
 471              		.cfi_offset 14, -4
 134:.\gnome_execute.c ****     current_context->accumulator = current_context->accumulator + (0x0F & immediate) + current_cont
 472              		.loc 1 134 0
 473 0002 114A     		ldr	r2, .L52
 474 0004 1368     		ldr	r3, [r2]
 475 0006 1C78     		ldrb	r4, [r3]
 476 0008 5978     		ldrb	r1, [r3, #1]
 477 000a 0F25     		mov	r5, #15
 478 000c 2840     		and	r0, r5
 479              	.LVL7:
 480 000e 2018     		add	r0, r4, r0
 481 0010 0818     		add	r0, r1, r0
 482 0012 1870     		strb	r0, [r3]
 135:.\gnome_execute.c ****     
 136:.\gnome_execute.c ****     // Actualiza C
 137:.\gnome_execute.c ****     if (current_context->accumulator & 0x10) {
 483              		.loc 1 137 0
 484 0014 1268     		ldr	r2, [r2]
 485 0016 1378     		ldrb	r3, [r2]
 486 0018 D906     		lsl	r1, r3, #27
 487 001a 07D5     		bpl	.L48
 138:.\gnome_execute.c ****         current_context->accumulator &= 0x0F;
 488              		.loc 1 138 0
 489 001c 0F21     		mov	r1, #15
ARM GAS  C:\Users\Javier\AppData\Local\Temp\ccO8tKZX.s 			page 12


 490 001e 0B40     		and	r3, r1
 491 0020 1370     		strb	r3, [r2]
 139:.\gnome_execute.c ****         current_context->flags.C = 1;
 492              		.loc 1 139 0
 493 0022 094B     		ldr	r3, .L52
 494 0024 1B68     		ldr	r3, [r3]
 495 0026 0122     		mov	r2, #1
 496 0028 5A70     		strb	r2, [r3, #1]
 497 002a 01E0     		b	.L49
 498              	.L48:
 140:.\gnome_execute.c ****     } else
 141:.\gnome_execute.c ****         current_context->flags.C = 0;
 499              		.loc 1 141 0
 500 002c 0023     		mov	r3, #0
 501 002e 5370     		strb	r3, [r2, #1]
 502              	.L49:
 142:.\gnome_execute.c ****     
 143:.\gnome_execute.c ****     // Actualiza Z
 144:.\gnome_execute.c ****     if (current_context->accumulator == 0)
 503              		.loc 1 144 0
 504 0030 054B     		ldr	r3, .L52
 505 0032 1B68     		ldr	r3, [r3]
 506 0034 1A78     		ldrb	r2, [r3]
 507 0036 002A     		cmp	r2, #0
 508 0038 02D1     		bne	.L50
 145:.\gnome_execute.c ****         current_context->flags.Z = 1;
 509              		.loc 1 145 0
 510 003a 0132     		add	r2, r2, #1
 511 003c 9A70     		strb	r2, [r3, #2]
 512 003e 01E0     		b	.L47
 513              	.L50:
 146:.\gnome_execute.c ****     else 
 147:.\gnome_execute.c ****         current_context->flags.Z = 0;
 514              		.loc 1 147 0
 515 0040 0022     		mov	r2, #0
 516 0042 9A70     		strb	r2, [r3, #2]
 517              	.L47:
 148:.\gnome_execute.c **** }
 518              		.loc 1 148 0
 519              		@ sp needed
 520 0044 30BD     		pop	{r4, r5, pc}
 521              	.L53:
 522 0046 C046     		.align	2
 523              	.L52:
 524 0048 00000000 		.word	current_context
 525              		.cfi_endproc
 526              	.LFE46:
 527              		.size	add_d_inst, .-add_d_inst
 528              		.section	.text.store_rd_inst,"ax",%progbits
 529              		.align	2
 530              		.global	store_rd_inst
 531              		.code	16
 532              		.thumb_func
 533              		.type	store_rd_inst, %function
 534              	store_rd_inst:
 535              	.LFB47:
 149:.\gnome_execute.c **** 
ARM GAS  C:\Users\Javier\AppData\Local\Temp\ccO8tKZX.s 			page 13


 150:.\gnome_execute.c **** // STORE_RD
 151:.\gnome_execute.c **** // C: No Actualiza
 152:.\gnome_execute.c **** // Z: No Actualiza
 153:.\gnome_execute.c **** void store_rd_inst(uint8_t regist) {
 536              		.loc 1 153 0
 537              		.cfi_startproc
 538              	.LVL8:
 539 0000 08B5     		push	{r3, lr}
 540              		.cfi_def_cfa_offset 8
 541              		.cfi_offset 3, -8
 542              		.cfi_offset 14, -4
 154:.\gnome_execute.c ****     gnome_store_reg(regist);
 543              		.loc 1 154 0
 544 0002 FFF7FEFF 		bl	gnome_store_reg
 545              	.LVL9:
 155:.\gnome_execute.c **** }
 546              		.loc 1 155 0
 547              		@ sp needed
 548 0006 08BD     		pop	{r3, pc}
 549              		.cfi_endproc
 550              	.LFE47:
 551              		.size	store_rd_inst, .-store_rd_inst
 552              		.section	.text.load_rd_inst,"ax",%progbits
 553              		.align	2
 554              		.global	load_rd_inst
 555              		.code	16
 556              		.thumb_func
 557              		.type	load_rd_inst, %function
 558              	load_rd_inst:
 559              	.LFB48:
 156:.\gnome_execute.c **** 
 157:.\gnome_execute.c **** // XOR_RD
 158:.\gnome_execute.c **** // C: Not Actualiza
 159:.\gnome_execute.c **** // Z: Actualiza
 160:.\gnome_execute.c **** void load_rd_inst(uint8_t regist) {
 560              		.loc 1 160 0
 561              		.cfi_startproc
 562              	.LVL10:
 563 0000 38B5     		push	{r3, r4, r5, lr}
 564              		.cfi_def_cfa_offset 16
 565              		.cfi_offset 3, -16
 566              		.cfi_offset 4, -12
 567              		.cfi_offset 5, -8
 568              		.cfi_offset 14, -4
 161:.\gnome_execute.c ****     current_context->accumulator = gnome_load_reg(regist);
 569              		.loc 1 161 0
 570 0002 054C     		ldr	r4, .L56
 571 0004 2568     		ldr	r5, [r4]
 572 0006 FFF7FEFF 		bl	gnome_load_reg
 573              	.LVL11:
 574 000a 2870     		strb	r0, [r5]
 162:.\gnome_execute.c ****     
 163:.\gnome_execute.c ****     current_context->flags.Z = current_context->accumulator == 0;
 575              		.loc 1 163 0
 576 000c 2268     		ldr	r2, [r4]
 577 000e 1378     		ldrb	r3, [r2]
 578 0010 5942     		neg	r1, r3
ARM GAS  C:\Users\Javier\AppData\Local\Temp\ccO8tKZX.s 			page 14


 579 0012 4B41     		adc	r3, r3, r1
 580 0014 9370     		strb	r3, [r2, #2]
 164:.\gnome_execute.c **** }
 581              		.loc 1 164 0
 582              		@ sp needed
 583 0016 38BD     		pop	{r3, r4, r5, pc}
 584              	.L57:
 585              		.align	2
 586              	.L56:
 587 0018 00000000 		.word	current_context
 588              		.cfi_endproc
 589              	.LFE48:
 590              		.size	load_rd_inst, .-load_rd_inst
 591              		.section	.text.add_rd_inst,"ax",%progbits
 592              		.align	2
 593              		.global	add_rd_inst
 594              		.code	16
 595              		.thumb_func
 596              		.type	add_rd_inst, %function
 597              	add_rd_inst:
 598              	.LFB49:
 165:.\gnome_execute.c **** 
 166:.\gnome_execute.c **** // ADD_RD
 167:.\gnome_execute.c **** // C: Actualiza
 168:.\gnome_execute.c **** // Z: Actualiza
 169:.\gnome_execute.c **** void add_rd_inst(uint8_t regist) {
 599              		.loc 1 169 0
 600              		.cfi_startproc
 601              	.LVL12:
 602 0000 38B5     		push	{r3, r4, r5, lr}
 603              		.cfi_def_cfa_offset 16
 604              		.cfi_offset 3, -16
 605              		.cfi_offset 4, -12
 606              		.cfi_offset 5, -8
 607              		.cfi_offset 14, -4
 170:.\gnome_execute.c ****     current_context->accumulator = current_context->accumulator + (0x0F & gnome_load_reg(regist)) +
 608              		.loc 1 170 0
 609 0002 124C     		ldr	r4, .L63
 610 0004 2368     		ldr	r3, [r4]
 611 0006 1D78     		ldrb	r5, [r3]
 612 0008 FFF7FEFF 		bl	gnome_load_reg
 613              	.LVL13:
 614 000c 2368     		ldr	r3, [r4]
 615 000e 5A78     		ldrb	r2, [r3, #1]
 616 0010 0F21     		mov	r1, #15
 617 0012 0840     		and	r0, r1
 618 0014 2818     		add	r0, r5, r0
 619 0016 1018     		add	r0, r2, r0
 620 0018 1870     		strb	r0, [r3]
 171:.\gnome_execute.c ****     
 172:.\gnome_execute.c ****     // Update C
 173:.\gnome_execute.c ****     if (current_context->accumulator & 0x10) {
 621              		.loc 1 173 0
 622 001a 2268     		ldr	r2, [r4]
 623 001c 1378     		ldrb	r3, [r2]
 624 001e D906     		lsl	r1, r3, #27
 625 0020 07D5     		bpl	.L59
ARM GAS  C:\Users\Javier\AppData\Local\Temp\ccO8tKZX.s 			page 15


 174:.\gnome_execute.c ****         current_context->accumulator &= 0x0F;
 626              		.loc 1 174 0
 627 0022 0F21     		mov	r1, #15
 628 0024 0B40     		and	r3, r1
 629 0026 1370     		strb	r3, [r2]
 175:.\gnome_execute.c ****         current_context->flags.C = 1;
 630              		.loc 1 175 0
 631 0028 084B     		ldr	r3, .L63
 632 002a 1B68     		ldr	r3, [r3]
 633 002c 0122     		mov	r2, #1
 634 002e 5A70     		strb	r2, [r3, #1]
 635 0030 01E0     		b	.L60
 636              	.L59:
 176:.\gnome_execute.c ****     } else
 177:.\gnome_execute.c ****         current_context->flags.C = 0;
 637              		.loc 1 177 0
 638 0032 0023     		mov	r3, #0
 639 0034 5370     		strb	r3, [r2, #1]
 640              	.L60:
 178:.\gnome_execute.c ****     
 179:.\gnome_execute.c ****     // Update Z
 180:.\gnome_execute.c ****     if (current_context->accumulator == 0)
 641              		.loc 1 180 0
 642 0036 054B     		ldr	r3, .L63
 643 0038 1B68     		ldr	r3, [r3]
 644 003a 1A78     		ldrb	r2, [r3]
 645 003c 002A     		cmp	r2, #0
 646 003e 02D1     		bne	.L61
 181:.\gnome_execute.c ****         current_context->flags.Z = 1;
 647              		.loc 1 181 0
 648 0040 0132     		add	r2, r2, #1
 649 0042 9A70     		strb	r2, [r3, #2]
 650 0044 01E0     		b	.L58
 651              	.L61:
 182:.\gnome_execute.c ****     else 
 183:.\gnome_execute.c ****         current_context->flags.Z = 0;
 652              		.loc 1 183 0
 653 0046 0022     		mov	r2, #0
 654 0048 9A70     		strb	r2, [r3, #2]
 655              	.L58:
 184:.\gnome_execute.c **** }
 656              		.loc 1 184 0
 657              		@ sp needed
 658 004a 38BD     		pop	{r3, r4, r5, pc}
 659              	.L64:
 660              		.align	2
 661              	.L63:
 662 004c 00000000 		.word	current_context
 663              		.cfi_endproc
 664              	.LFE49:
 665              		.size	add_rd_inst, .-add_rd_inst
 666              		.section	.text.xor_rd_inst,"ax",%progbits
 667              		.align	2
 668              		.global	xor_rd_inst
 669              		.code	16
 670              		.thumb_func
 671              		.type	xor_rd_inst, %function
ARM GAS  C:\Users\Javier\AppData\Local\Temp\ccO8tKZX.s 			page 16


 672              	xor_rd_inst:
 673              	.LFB50:
 185:.\gnome_execute.c **** 
 186:.\gnome_execute.c **** // XOR_RD
 187:.\gnome_execute.c **** // C: No Actualiza
 188:.\gnome_execute.c **** // Z: Actualiza
 189:.\gnome_execute.c **** void xor_rd_inst(uint8_t regist) {
 674              		.loc 1 189 0
 675              		.cfi_startproc
 676              	.LVL14:
 677 0000 08B5     		push	{r3, lr}
 678              		.cfi_def_cfa_offset 8
 679              		.cfi_offset 3, -8
 680              		.cfi_offset 14, -4
 190:.\gnome_execute.c ****     current_context->accumulator ^= gnome_load_reg(regist);
 681              		.loc 1 190 0
 682 0002 FFF7FEFF 		bl	gnome_load_reg
 683              	.LVL15:
 684 0006 054A     		ldr	r2, .L66
 685 0008 1168     		ldr	r1, [r2]
 686 000a 0B78     		ldrb	r3, [r1]
 687 000c 5840     		eor	r0, r3
 688 000e 0870     		strb	r0, [r1]
 191:.\gnome_execute.c ****     current_context->flags.Z = current_context->accumulator == 0;
 689              		.loc 1 191 0
 690 0010 1268     		ldr	r2, [r2]
 691 0012 1378     		ldrb	r3, [r2]
 692 0014 5942     		neg	r1, r3
 693 0016 4B41     		adc	r3, r3, r1
 694 0018 9370     		strb	r3, [r2, #2]
 192:.\gnome_execute.c **** }
 695              		.loc 1 192 0
 696              		@ sp needed
 697 001a 08BD     		pop	{r3, pc}
 698              	.L67:
 699              		.align	2
 700              	.L66:
 701 001c 00000000 		.word	current_context
 702              		.cfi_endproc
 703              	.LFE50:
 704              		.size	xor_rd_inst, .-xor_rd_inst
 705              		.section	.text.and_rd_inst,"ax",%progbits
 706              		.align	2
 707              		.global	and_rd_inst
 708              		.code	16
 709              		.thumb_func
 710              		.type	and_rd_inst, %function
 711              	and_rd_inst:
 712              	.LFB51:
 193:.\gnome_execute.c **** 
 194:.\gnome_execute.c **** // AND_RD
 195:.\gnome_execute.c **** // C: No Actualiza
 196:.\gnome_execute.c **** // Z: Actualiza
 197:.\gnome_execute.c **** void and_rd_inst(uint8_t regist) {
 713              		.loc 1 197 0
 714              		.cfi_startproc
 715              	.LVL16:
ARM GAS  C:\Users\Javier\AppData\Local\Temp\ccO8tKZX.s 			page 17


 716 0000 08B5     		push	{r3, lr}
 717              		.cfi_def_cfa_offset 8
 718              		.cfi_offset 3, -8
 719              		.cfi_offset 14, -4
 198:.\gnome_execute.c ****     current_context->accumulator &= gnome_load_reg(regist);
 720              		.loc 1 198 0
 721 0002 FFF7FEFF 		bl	gnome_load_reg
 722              	.LVL17:
 723 0006 054B     		ldr	r3, .L69
 724 0008 1A68     		ldr	r2, [r3]
 725 000a 1178     		ldrb	r1, [r2]
 726 000c 0840     		and	r0, r1
 727 000e 1070     		strb	r0, [r2]
 199:.\gnome_execute.c ****     current_context->flags.Z = current_context->accumulator == 0;
 728              		.loc 1 199 0
 729 0010 1A68     		ldr	r2, [r3]
 730 0012 1378     		ldrb	r3, [r2]
 731 0014 5942     		neg	r1, r3
 732 0016 4B41     		adc	r3, r3, r1
 733 0018 9370     		strb	r3, [r2, #2]
 200:.\gnome_execute.c **** }
 734              		.loc 1 200 0
 735              		@ sp needed
 736 001a 08BD     		pop	{r3, pc}
 737              	.L70:
 738              		.align	2
 739              	.L69:
 740 001c 00000000 		.word	current_context
 741              		.cfi_endproc
 742              	.LFE51:
 743              		.size	and_rd_inst, .-and_rd_inst
 744              		.section	.text.jmp_add_inst,"ax",%progbits
 745              		.align	2
 746              		.global	jmp_add_inst
 747              		.code	16
 748              		.thumb_func
 749              		.type	jmp_add_inst, %function
 750              	jmp_add_inst:
 751              	.LFB52:
 201:.\gnome_execute.c **** 
 202:.\gnome_execute.c **** // AND_RD
 203:.\gnome_execute.c **** // C: No Actualiza
 204:.\gnome_execute.c **** // Z: No Actualiza
 205:.\gnome_execute.c **** void jmp_add_inst(uint8_t regist) {
 752              		.loc 1 205 0
 753              		.cfi_startproc
 754              	.LVL18:
 206:.\gnome_execute.c ****     #ifdef GNOME_JMP_ADD_ALWAYS_PAGE_0
 207:.\gnome_execute.c ****         current_context->PC = regist;
 755              		.loc 1 207 0
 756 0000 014B     		ldr	r3, .L72
 757 0002 1B68     		ldr	r3, [r3]
 758 0004 D870     		strb	r0, [r3, #3]
 208:.\gnome_execute.c ****     #else
 209:.\gnome_execute.c ****         current_context->PC = regist + (0x80 & current_context->PC);
 210:.\gnome_execute.c ****     #endif
 211:.\gnome_execute.c **** }
ARM GAS  C:\Users\Javier\AppData\Local\Temp\ccO8tKZX.s 			page 18


 759              		.loc 1 211 0
 760              		@ sp needed
 761 0006 7047     		bx	lr
 762              	.L73:
 763              		.align	2
 764              	.L72:
 765 0008 00000000 		.word	current_context
 766              		.cfi_endproc
 767              	.LFE52:
 768              		.size	jmp_add_inst, .-jmp_add_inst
 769              		.section	.text.exectute,"ax",%progbits
 770              		.align	2
 771              		.global	exectute
 772              		.code	16
 773              		.thumb_func
 774              		.type	exectute, %function
 775              	exectute:
 776              	.LFB53:
 212:.\gnome_execute.c **** 
 213:.\gnome_execute.c **** void exectute(inst_enum inst, uint8_t code) {   
 777              		.loc 1 213 0
 778              		.cfi_startproc
 779              	.LVL19:
 780 0000 08B5     		push	{r3, lr}
 781              		.cfi_def_cfa_offset 8
 782              		.cfi_offset 3, -8
 783              		.cfi_offset 14, -4
 214:.\gnome_execute.c ****     switch (inst) {
 784              		.loc 1 214 0
 785 0002 1328     		cmp	r0, #19
 786 0004 4BD8     		bhi	.L74
 787 0006 8000     		lsl	r0, r0, #2
 788              	.LVL20:
 789 0008 254B     		ldr	r3, .L96
 790 000a 1B58     		ldr	r3, [r3, r0]
 791 000c 9F46     		mov	pc, r3
 792              		.section	.rodata
 793              		.align	2
 794              	.L77:
 795 0000 0E000000 		.word	.L76
 796 0004 14000000 		.word	.L78
 797 0008 1A000000 		.word	.L79
 798 000c 20000000 		.word	.L80
 799 0010 26000000 		.word	.L81
 800 0014 2C000000 		.word	.L82
 801 0018 32000000 		.word	.L83
 802 001c 38000000 		.word	.L84
 803 0020 3E000000 		.word	.L85
 804 0024 44000000 		.word	.L86
 805 0028 4A000000 		.word	.L87
 806 002c 9E000000 		.word	.L74
 807 0030 50000000 		.word	.L88
 808 0034 5A000000 		.word	.L89
 809 0038 64000000 		.word	.L90
 810 003c 6E000000 		.word	.L91
 811 0040 78000000 		.word	.L92
 812 0044 82000000 		.word	.L93
ARM GAS  C:\Users\Javier\AppData\Local\Temp\ccO8tKZX.s 			page 19


 813 0048 8C000000 		.word	.L94
 814 004c 96000000 		.word	.L95
 815              		.section	.text.exectute
 816              	.L76:
 215:.\gnome_execute.c ****         case clear_c:
 216:.\gnome_execute.c ****             clear_c_inst();
 817              		.loc 1 216 0
 818 000e FFF7FEFF 		bl	clear_c_inst
 819              	.LVL21:
 217:.\gnome_execute.c ****             break;
 820              		.loc 1 217 0
 821 0012 44E0     		b	.L74
 822              	.LVL22:
 823              	.L78:
 218:.\gnome_execute.c ****         case set_c:
 219:.\gnome_execute.c ****             set_c_inst();
 824              		.loc 1 219 0
 825 0014 FFF7FEFF 		bl	set_c_inst
 826              	.LVL23:
 220:.\gnome_execute.c ****             break;
 827              		.loc 1 220 0
 828 0018 41E0     		b	.L74
 829              	.LVL24:
 830              	.L79:
 221:.\gnome_execute.c ****         case skip_c:
 222:.\gnome_execute.c ****             skip_c_inst();
 831              		.loc 1 222 0
 832 001a FFF7FEFF 		bl	skip_c_inst
 833              	.LVL25:
 223:.\gnome_execute.c ****             break;
 834              		.loc 1 223 0
 835 001e 3EE0     		b	.L74
 836              	.LVL26:
 837              	.L80:
 224:.\gnome_execute.c ****         case skip_z:
 225:.\gnome_execute.c ****             skip_z_inst();
 838              		.loc 1 225 0
 839 0020 FFF7FEFF 		bl	skip_z_inst
 840              	.LVL27:
 226:.\gnome_execute.c ****             break;
 841              		.loc 1 226 0
 842 0024 3BE0     		b	.L74
 843              	.LVL28:
 844              	.L81:
 227:.\gnome_execute.c ****         case push:
 228:.\gnome_execute.c ****             push_inst();
 845              		.loc 1 228 0
 846 0026 FFF7FEFF 		bl	push_inst
 847              	.LVL29:
 229:.\gnome_execute.c ****             break;
 848              		.loc 1 229 0
 849 002a 38E0     		b	.L74
 850              	.LVL30:
 851              	.L82:
 230:.\gnome_execute.c ****         case rts:
 231:.\gnome_execute.c ****             rts_inst();
 852              		.loc 1 231 0
ARM GAS  C:\Users\Javier\AppData\Local\Temp\ccO8tKZX.s 			page 20


 853 002c FFF7FEFF 		bl	rts_inst
 854              	.LVL31:
 232:.\gnome_execute.c ****             break;
 855              		.loc 1 232 0
 856 0030 35E0     		b	.L74
 857              	.LVL32:
 858              	.L83:
 233:.\gnome_execute.c ****         case jsr:
 234:.\gnome_execute.c ****             jsr_inst();
 859              		.loc 1 234 0
 860 0032 FFF7FEFF 		bl	jsr_inst
 861              	.LVL33:
 235:.\gnome_execute.c ****             break;
 862              		.loc 1 235 0
 863 0036 32E0     		b	.L74
 864              	.LVL34:
 865              	.L84:
 236:.\gnome_execute.c ****         case rti:
 237:.\gnome_execute.c ****             rti_inst();
 866              		.loc 1 237 0
 867 0038 FFF7FEFF 		bl	rti_inst
 868              	.LVL35:
 238:.\gnome_execute.c ****             break;
 869              		.loc 1 238 0
 870 003c 2FE0     		b	.L74
 871              	.LVL36:
 872              	.L85:
 239:.\gnome_execute.c ****         case branch:
 240:.\gnome_execute.c ****             branch_inst();
 873              		.loc 1 240 0
 874 003e FFF7FEFF 		bl	branch_inst
 875              	.LVL37:
 241:.\gnome_execute.c ****             break;
 876              		.loc 1 241 0
 877 0042 2CE0     		b	.L74
 878              	.LVL38:
 879              	.L86:
 242:.\gnome_execute.c ****         case ror:
 243:.\gnome_execute.c ****             ror_inst();
 880              		.loc 1 243 0
 881 0044 FFF7FEFF 		bl	ror_inst
 882              	.LVL39:
 244:.\gnome_execute.c ****             break;
 883              		.loc 1 244 0
 884 0048 29E0     		b	.L74
 885              	.LVL40:
 886              	.L87:
 245:.\gnome_execute.c ****         case rol:
 246:.\gnome_execute.c ****             rol_inst();
 887              		.loc 1 246 0
 888 004a FFF7FEFF 		bl	rol_inst
 889              	.LVL41:
 247:.\gnome_execute.c ****             break;    
 890              		.loc 1 247 0
 891 004e 26E0     		b	.L74
 892              	.LVL42:
 893              	.L88:
ARM GAS  C:\Users\Javier\AppData\Local\Temp\ccO8tKZX.s 			page 21


 248:.\gnome_execute.c ****         case nop:
 249:.\gnome_execute.c ****             break;
 250:.\gnome_execute.c ****         case load_d:
 251:.\gnome_execute.c ****             load_d_inst(code & 0x0F);
 894              		.loc 1 251 0
 895 0050 0F20     		mov	r0, #15
 896 0052 0840     		and	r0, r1
 897 0054 FFF7FEFF 		bl	load_d_inst
 898              	.LVL43:
 252:.\gnome_execute.c ****             break;
 899              		.loc 1 252 0
 900 0058 21E0     		b	.L74
 901              	.LVL44:
 902              	.L89:
 253:.\gnome_execute.c ****         case add_d:
 254:.\gnome_execute.c ****             add_d_inst(code & 0x0F);
 903              		.loc 1 254 0
 904 005a 0F20     		mov	r0, #15
 905 005c 0840     		and	r0, r1
 906 005e FFF7FEFF 		bl	add_d_inst
 907              	.LVL45:
 255:.\gnome_execute.c ****             break;
 908              		.loc 1 255 0
 909 0062 1CE0     		b	.L74
 910              	.LVL46:
 911              	.L90:
 256:.\gnome_execute.c ****         case store_rd:
 257:.\gnome_execute.c ****             store_rd_inst(code & 0x0F);
 912              		.loc 1 257 0
 913 0064 0F20     		mov	r0, #15
 914 0066 0840     		and	r0, r1
 915 0068 FFF7FEFF 		bl	store_rd_inst
 916              	.LVL47:
 258:.\gnome_execute.c ****             break;
 917              		.loc 1 258 0
 918 006c 17E0     		b	.L74
 919              	.LVL48:
 920              	.L91:
 259:.\gnome_execute.c ****         case load_rd:
 260:.\gnome_execute.c ****             load_rd_inst(code & 0x0F);
 921              		.loc 1 260 0
 922 006e 0F20     		mov	r0, #15
 923 0070 0840     		and	r0, r1
 924 0072 FFF7FEFF 		bl	load_rd_inst
 925              	.LVL49:
 261:.\gnome_execute.c ****             break;
 926              		.loc 1 261 0
 927 0076 12E0     		b	.L74
 928              	.LVL50:
 929              	.L92:
 262:.\gnome_execute.c ****         case add_rd:
 263:.\gnome_execute.c ****             add_rd_inst(code & 0x0F);
 930              		.loc 1 263 0
 931 0078 0F20     		mov	r0, #15
 932 007a 0840     		and	r0, r1
 933 007c FFF7FEFF 		bl	add_rd_inst
 934              	.LVL51:
ARM GAS  C:\Users\Javier\AppData\Local\Temp\ccO8tKZX.s 			page 22


 264:.\gnome_execute.c ****             break;
 935              		.loc 1 264 0
 936 0080 0DE0     		b	.L74
 937              	.LVL52:
 938              	.L93:
 265:.\gnome_execute.c ****         case xor_rd:
 266:.\gnome_execute.c ****             xor_rd_inst(code & 0x0F);
 939              		.loc 1 266 0
 940 0082 0F20     		mov	r0, #15
 941 0084 0840     		and	r0, r1
 942 0086 FFF7FEFF 		bl	xor_rd_inst
 943              	.LVL53:
 267:.\gnome_execute.c ****             break;
 944              		.loc 1 267 0
 945 008a 08E0     		b	.L74
 946              	.LVL54:
 947              	.L94:
 268:.\gnome_execute.c ****         case and_rd:
 269:.\gnome_execute.c ****             and_rd_inst(code & 0x0F);
 948              		.loc 1 269 0
 949 008c 0F20     		mov	r0, #15
 950 008e 0840     		and	r0, r1
 951 0090 FFF7FEFF 		bl	and_rd_inst
 952              	.LVL55:
 270:.\gnome_execute.c ****             break;
 953              		.loc 1 270 0
 954 0094 03E0     		b	.L74
 955              	.LVL56:
 956              	.L95:
 271:.\gnome_execute.c ****         case jmp_add:
 272:.\gnome_execute.c ****             jmp_add_inst(code & 0x7F);
 957              		.loc 1 272 0
 958 0096 7F20     		mov	r0, #127
 959 0098 0840     		and	r0, r1
 960 009a FFF7FEFF 		bl	jmp_add_inst
 961              	.LVL57:
 962              	.L74:
 273:.\gnome_execute.c ****             break;
 274:.\gnome_execute.c ****         default:
 275:.\gnome_execute.c ****             break;
 276:.\gnome_execute.c ****     }
 277:.\gnome_execute.c **** }
 963              		.loc 1 277 0
 964              		@ sp needed
 965 009e 08BD     		pop	{r3, pc}
 966              	.L97:
 967              		.align	2
 968              	.L96:
 969 00a0 00000000 		.word	.L77
 970              		.cfi_endproc
 971              	.LFE53:
 972              		.size	exectute, .-exectute
 973              		.comm	via_state,3,4
 974              		.comm	registers,16,4
 975              		.comm	current_context,4,4
 976              		.comm	it_context,11,4
 977              		.comm	normal_context,11,4
ARM GAS  C:\Users\Javier\AppData\Local\Temp\ccO8tKZX.s 			page 23


 978              		.text
 979              	.Letext0:
 980              		.file 2 "c:\\program files (x86)\\cypress\\psoc creator\\3.3\\psoc creator\\import\\gnu\\arm\\4.9.
 981              		.file 3 "c:\\program files (x86)\\cypress\\psoc creator\\3.3\\psoc creator\\import\\gnu\\arm\\4.9.
 982              		.file 4 ".\\gnome_registers.h"
 983              		.file 5 ".\\gnome_memory.h"