ARM GAS  C:\Users\Javier\AppData\Local\Temp\ccpuRbSa.s 			page 1


   1              		.syntax unified
   2              		.cpu cortex-m3
   3              		.fpu softvfp
   4              		.eabi_attribute 20, 1
   5              		.eabi_attribute 21, 1
   6              		.eabi_attribute 23, 3
   7              		.eabi_attribute 24, 1
   8              		.eabi_attribute 25, 1
   9              		.eabi_attribute 26, 1
  10              		.eabi_attribute 30, 1
  11              		.eabi_attribute 34, 1
  12              		.eabi_attribute 18, 4
  13              		.thumb
  14              		.file	"gnome_debug.c"
  15              		.text
  16              	.Ltext0:
  17              		.cfi_sections	.debug_frame
  18              		.section	.text.gnome_debug_init,"ax",%progbits
  19              		.align	2
  20              		.global	gnome_debug_init
  21              		.thumb
  22              		.thumb_func
  23              		.type	gnome_debug_init, %function
  24              	gnome_debug_init:
  25              	.LFB63:
  26              		.file 1 ".\\gnome_debug.c"
   1:.\gnome_debug.c **** /* ========================================
   2:.\gnome_debug.c ****  *
   3:.\gnome_debug.c ****  * Copyright YOUR COMPANY, THE YEAR
   4:.\gnome_debug.c ****  * All Rights Reserved
   5:.\gnome_debug.c ****  * UNPUBLISHED, LICENSED SOFTWARE.
   6:.\gnome_debug.c ****  *
   7:.\gnome_debug.c ****  * CONFIDENTIAL AND PROPRIETARY INFORMATION
   8:.\gnome_debug.c ****  * WHICH IS THE PROPERTY OF your company.
   9:.\gnome_debug.c ****  *
  10:.\gnome_debug.c ****  * ========================================
  11:.\gnome_debug.c **** */
  12:.\gnome_debug.c **** 
  13:.\gnome_debug.c **** #include "gnome.h"
  14:.\gnome_debug.c **** #include "gnome_config.h"
  15:.\gnome_debug.c **** #include "gnome_debug.h"
  16:.\gnome_debug.c **** #include "gnome_memory.h"
  17:.\gnome_debug.c **** 
  18:.\gnome_debug.c **** #if GNOME_DEBUGGING_ON
  19:.\gnome_debug.c ****     #include "UART_RX_IT.h"
  20:.\gnome_debug.c ****     #include <string.h>
  21:.\gnome_debug.c ****     #include <stdlib.h>
  22:.\gnome_debug.c **** #endif
  23:.\gnome_debug.c **** 
  24:.\gnome_debug.c **** #include <stdio.h>
  25:.\gnome_debug.c **** 
  26:.\gnome_debug.c **** CY_ISR_PROTO(gnome_tx_uart_it);
  27:.\gnome_debug.c **** 
  28:.\gnome_debug.c **** void gnome_debug_init() {
  27              		.loc 1 28 0
  28              		.cfi_startproc
  29              		@ args = 0, pretend = 0, frame = 0
ARM GAS  C:\Users\Javier\AppData\Local\Temp\ccpuRbSa.s 			page 2


  30              		@ frame_needed = 0, uses_anonymous_args = 0
  31              		@ link register save eliminated.
  32 0000 7047     		bx	lr
  33              		.cfi_endproc
  34              	.LFE63:
  35              		.size	gnome_debug_init, .-gnome_debug_init
  36 0002 00BF     		.section	.text.gnome_debug_loop,"ax",%progbits
  37              		.align	2
  38              		.global	gnome_debug_loop
  39              		.thumb
  40              		.thumb_func
  41              		.type	gnome_debug_loop, %function
  42              	gnome_debug_loop:
  43              	.LFB64:
  29:.\gnome_debug.c ****     #if (GNOME_DEBUGGING_ON == 1) 
  30:.\gnome_debug.c ****         UART_Start();
  31:.\gnome_debug.c ****         UART_PutString("//////////////////////////////////////\r\n");
  32:.\gnome_debug.c ****         UART_PutString("//---- GNOME DEBUGGING TERMINAL ----//\r\n");
  33:.\gnome_debug.c ****         UART_PutString("//////////////////////////////////////\r\n");
  34:.\gnome_debug.c ****         
  35:.\gnome_debug.c ****         gnome_debug_state.active = 0x01;
  36:.\gnome_debug.c ****         uint8_t i;
  37:.\gnome_debug.c ****         for (i = 0; i < GNOME_DEBUGGING_MAX_BREAKPOINTS; i++) {
  38:.\gnome_debug.c ****             gnome_debug_state.breakpoints[i].active = 0x00;
  39:.\gnome_debug.c ****             gnome_debug_state.breakpoints[i].pc = GNOME_RESET_VECTOR;
  40:.\gnome_debug.c ****         }
  41:.\gnome_debug.c ****         
  42:.\gnome_debug.c ****         gnome_console.ptr = 0;
  43:.\gnome_debug.c ****         
  44:.\gnome_debug.c ****         #ifndef GNOME_UART_RX_IT_OPT_OUT
  45:.\gnome_debug.c ****             UART_RX_IT_StartEx(gnome_tx_uart_it);
  46:.\gnome_debug.c ****         #endif
  47:.\gnome_debug.c ****         
  48:.\gnome_debug.c ****     #endif
  49:.\gnome_debug.c **** }
  50:.\gnome_debug.c **** 
  51:.\gnome_debug.c **** void gnome_debug_loop(uint8_t code) {
  44              		.loc 1 51 0
  45              		.cfi_startproc
  46              		@ args = 0, pretend = 0, frame = 0
  47              		@ frame_needed = 0, uses_anonymous_args = 0
  48              		@ link register save eliminated.
  49              	.LVL0:
  50 0000 7047     		bx	lr
  51              		.cfi_endproc
  52              	.LFE64:
  53              		.size	gnome_debug_loop, .-gnome_debug_loop
  54 0002 00BF     		.section	.text.gnome_debug_print_state,"ax",%progbits
  55              		.align	2
  56              		.global	gnome_debug_print_state
  57              		.thumb
  58              		.thumb_func
  59              		.type	gnome_debug_print_state, %function
  60              	gnome_debug_print_state:
  61              	.LFB65:
  52:.\gnome_debug.c ****     #if(GNOME_DEBUGGING_ON==1) 
  53:.\gnome_debug.c ****         CyGlobalIntDisable;      
ARM GAS  C:\Users\Javier\AppData\Local\Temp\ccpuRbSa.s 			page 3


  54:.\gnome_debug.c ****         // Check if debugger should activate (by reaching a new breakpoint)
  55:.\gnome_debug.c ****         uint8_t i;
  56:.\gnome_debug.c ****         for (i = 0; i < GNOME_DEBUGGING_MAX_BREAKPOINTS; i++) {
  57:.\gnome_debug.c ****             if ((current_context->PC == gnome_debug_state.breakpoints[i].pc) && gnome_debug_state.b
  58:.\gnome_debug.c ****                 gnome_debug_state.active = 0x01;
  59:.\gnome_debug.c ****                 char str[40];
  60:.\gnome_debug.c ****                 sprintf(str, "Reached breakpoint at PC = 0x%02x\r\n", current_context->PC);
  61:.\gnome_debug.c ****                 UART_PutString(str);
  62:.\gnome_debug.c ****                 break;
  63:.\gnome_debug.c ****             }
  64:.\gnome_debug.c ****         }
  65:.\gnome_debug.c ****         
  66:.\gnome_debug.c ****         
  67:.\gnome_debug.c ****         // If debugger is active, print state and wait for user action
  68:.\gnome_debug.c ****         if (gnome_debug_state.active) {
  69:.\gnome_debug.c ****             // Print state
  70:.\gnome_debug.c ****             gnome_debug_print_state(code);
  71:.\gnome_debug.c ****             
  72:.\gnome_debug.c ****             // Wait for user to resume execution or step
  73:.\gnome_debug.c ****             CyGlobalIntDisable;
  74:.\gnome_debug.c ****             gnome_debug_state.stop = 0x01;
  75:.\gnome_debug.c ****             CyGlobalIntEnable;
  76:.\gnome_debug.c ****             while(gnome_debug_state.stop);
  77:.\gnome_debug.c ****         }
  78:.\gnome_debug.c ****         
  79:.\gnome_debug.c ****         CyGlobalIntEnable;
  80:.\gnome_debug.c ****     #endif
  81:.\gnome_debug.c **** }
  82:.\gnome_debug.c **** 
  83:.\gnome_debug.c **** 
  84:.\gnome_debug.c **** void gnome_debug_print_state(uint8_t code) {
  62              		.loc 1 84 0
  63              		.cfi_startproc
  64              		@ args = 0, pretend = 0, frame = 0
  65              		@ frame_needed = 0, uses_anonymous_args = 0
  66              		@ link register save eliminated.
  67              	.LVL1:
  68 0000 7047     		bx	lr
  69              		.cfi_endproc
  70              	.LFE65:
  71              		.size	gnome_debug_print_state, .-gnome_debug_print_state
  72 0002 00BF     		.section	.text.gnome_tx_uart_it,"ax",%progbits
  73              		.align	2
  74              		.global	gnome_tx_uart_it
  75              		.thumb
  76              		.thumb_func
  77              		.type	gnome_tx_uart_it, %function
  78              	gnome_tx_uart_it:
  79              	.LFB66:
  85:.\gnome_debug.c ****     #if(GNOME_DEBUGGING_ON==1) 
  86:.\gnome_debug.c ****         char str[40];
  87:.\gnome_debug.c ****         if (current_context == &normal_context) 
  88:.\gnome_debug.c ****             UART_PutString("\tNormal Context\r\n");
  89:.\gnome_debug.c ****         else
  90:.\gnome_debug.c ****             UART_PutString("\tIT Context\r\n");
  91:.\gnome_debug.c ****             
  92:.\gnome_debug.c ****         sprintf(str, "\tPC = 0x%02x\r\n", current_context->PC);
ARM GAS  C:\Users\Javier\AppData\Local\Temp\ccpuRbSa.s 			page 4


  93:.\gnome_debug.c ****         UART_PutString(str);
  94:.\gnome_debug.c ****         sprintf(str, "\tInstruccion = 0x%02x\r\n", code);
  95:.\gnome_debug.c ****         UART_PutString(str);
  96:.\gnome_debug.c ****         sprintf(str, "\tAcumulador = 0x%02x\r\n", current_context->accumulator);
  97:.\gnome_debug.c ****         UART_PutString(str);
  98:.\gnome_debug.c ****         sprintf(str, "\tC, Z = %d, %d\r\n", current_context->flags.C, current_context->flags.Z);
  99:.\gnome_debug.c ****         UART_PutString(str);
 100:.\gnome_debug.c ****         sprintf(str, "\tREG_DIR_INDIRECTO =  0x%02x\r\n", current_context->ind_addr_reg.data);
 101:.\gnome_debug.c ****         UART_PutString(str);
 102:.\gnome_debug.c ****         
 103:.\gnome_debug.c ****         int i = 0;
 104:.\gnome_debug.c ****         for (i = 0; i < 16; i++) {
 105:.\gnome_debug.c ****             sprintf(str, "\tREG[%d] = 0x%02x\r\n", i, gnome_debug_load_reg(i));
 106:.\gnome_debug.c ****             UART_PutString(str);
 107:.\gnome_debug.c ****         }
 108:.\gnome_debug.c ****         UART_PutString("\r\n");
 109:.\gnome_debug.c ****         for (i = 0; i < GNOME_STACK_SIZE; i++) {
 110:.\gnome_debug.c ****             uint8_t addr = current_context->stack.ptr - i;
 111:.\gnome_debug.c ****             if (addr >= GNOME_STACK_SIZE) addr -= GNOME_STACK_SIZE;
 112:.\gnome_debug.c ****             sprintf(str, "\tSTACK[%d] = 0x%02x\r\n", i, current_context->stack.data[addr]);
 113:.\gnome_debug.c ****             UART_PutString(str);
 114:.\gnome_debug.c ****         }
 115:.\gnome_debug.c ****         sprintf(str, "\tSTACK_PTR = 0x%02x\r\n", current_context->stack.ptr);
 116:.\gnome_debug.c ****         UART_PutString(str);
 117:.\gnome_debug.c ****         
 118:.\gnome_debug.c ****         UART_PutString("\r\n\r\n");
 119:.\gnome_debug.c ****     #endif
 120:.\gnome_debug.c **** }
 121:.\gnome_debug.c **** 
 122:.\gnome_debug.c **** #if GNOME_DEBUGGING_ON
 123:.\gnome_debug.c **** uint8_t gnome_debug_toggle_breakpoint(uint8_t PC) {
 124:.\gnome_debug.c ****     uint8_t i = 0, found = 0;
 125:.\gnome_debug.c ****     
 126:.\gnome_debug.c ****     // Toggle if it exists on the list
 127:.\gnome_debug.c ****     for (i = 0; i < GNOME_DEBUGGING_MAX_BREAKPOINTS; i++) {
 128:.\gnome_debug.c ****         if (gnome_debug_state.breakpoints[i].pc == PC) {
 129:.\gnome_debug.c ****             gnome_debug_state.breakpoints[i].active = !gnome_debug_state.breakpoints[i].active;
 130:.\gnome_debug.c ****             found = 1 | (gnome_debug_state.breakpoints[i].active << 1);
 131:.\gnome_debug.c ****             break;
 132:.\gnome_debug.c ****         }
 133:.\gnome_debug.c ****     }
 134:.\gnome_debug.c ****     
 135:.\gnome_debug.c ****     // Add to the list
 136:.\gnome_debug.c ****     if (found == 0) {
 137:.\gnome_debug.c ****         for (i = 0; i < GNOME_DEBUGGING_MAX_BREAKPOINTS; i++) {
 138:.\gnome_debug.c ****             if (!gnome_debug_state.breakpoints[i].active) {
 139:.\gnome_debug.c ****                 gnome_debug_state.breakpoints[i].pc = PC;
 140:.\gnome_debug.c ****                 gnome_debug_state.breakpoints[i].active = 1;
 141:.\gnome_debug.c ****                 found = 0x03;
 142:.\gnome_debug.c ****                 break;
 143:.\gnome_debug.c ****             }
 144:.\gnome_debug.c ****         }
 145:.\gnome_debug.c ****     }
 146:.\gnome_debug.c ****     
 147:.\gnome_debug.c ****     return found;
 148:.\gnome_debug.c **** }
 149:.\gnome_debug.c **** #endif
ARM GAS  C:\Users\Javier\AppData\Local\Temp\ccpuRbSa.s 			page 5


 150:.\gnome_debug.c **** 
 151:.\gnome_debug.c **** CY_ISR(gnome_tx_uart_it) {
  80              		.loc 1 151 0
  81              		.cfi_startproc
  82              		@ args = 0, pretend = 0, frame = 0
  83              		@ frame_needed = 0, uses_anonymous_args = 0
  84              		@ link register save eliminated.
  85 0000 7047     		bx	lr
  86              		.cfi_endproc
  87              	.LFE66:
  88              		.size	gnome_tx_uart_it, .-gnome_tx_uart_it
  89              		.comm	via_state,3,4
  90              		.comm	gnome_console,16,4
  91              		.comm	gnome_debug_state,18,4
  92              		.comm	rom,256,4
  93              		.comm	registers,16,4
  94              		.comm	current_context,4,4
  95              		.comm	it_context,11,4
  96              		.comm	normal_context,11,4
  97 0002 00BF     		.text
  98              	.Letext0:
  99              		.file 2 "c:\\program files (x86)\\cypress\\psoc creator\\3.3\\psoc creator\\import\\gnu\\arm\\4.9.
 100              		.file 3 "c:\\program files (x86)\\cypress\\psoc creator\\3.3\\psoc creator\\import\\gnu\\arm\\4.9.
 101              		.file 4 ".\\gnome_registers.h"
 102              		.file 5 ".\\gnome_debug.h"
 103              		.file 6 ".\\gnome_memory.h"
 104              		.file 7 "Generated_Source\\PSoC5/core_cm3.h"