ARM GAS  C:\Users\Javier\AppData\Local\Temp\ccFmmNK3.s 			page 1


   1              		.syntax unified
   2              		.cpu cortex-m3
   3              		.fpu softvfp
   4              		.eabi_attribute 20, 1
   5              		.eabi_attribute 21, 1
   6              		.eabi_attribute 23, 3
   7              		.eabi_attribute 24, 1
   8              		.eabi_attribute 25, 1
   9              		.eabi_attribute 26, 1
  10              		.eabi_attribute 30, 1
  11              		.eabi_attribute 34, 1
  12              		.eabi_attribute 18, 4
  13              		.thumb
  14              		.file	"gnome_lcd.c"
  15              		.text
  16              	.Ltext0:
  17              		.cfi_sections	.debug_frame
  18              		.section	.text.setup_lcd,"ax",%progbits
  19              		.align	2
  20              		.global	setup_lcd
  21              		.thumb
  22              		.thumb_func
  23              		.type	setup_lcd, %function
  24              	setup_lcd:
  25              	.LFB63:
  26              		.file 1 ".\\gnome_lcd.c"
   1:.\gnome_lcd.c **** /* ========================================
   2:.\gnome_lcd.c ****  *
   3:.\gnome_lcd.c ****  * Copyright YOUR COMPANY, THE YEAR
   4:.\gnome_lcd.c ****  * All Rights Reserved
   5:.\gnome_lcd.c ****  * UNPUBLISHED, LICENSED SOFTWARE.
   6:.\gnome_lcd.c ****  *
   7:.\gnome_lcd.c ****  * CONFIDENTIAL AND PROPRIETARY INFORMATION
   8:.\gnome_lcd.c ****  * WHICH IS THE PROPERTY OF your company.
   9:.\gnome_lcd.c ****  *
  10:.\gnome_lcd.c ****  * ========================================
  11:.\gnome_lcd.c **** */
  12:.\gnome_lcd.c **** 
  13:.\gnome_lcd.c **** #include "gnome_lcd.h"
  14:.\gnome_lcd.c **** 
  15:.\gnome_lcd.c **** void update_lcd_it();
  16:.\gnome_lcd.c **** 
  17:.\gnome_lcd.c **** void setup_lcd() {
  27              		.loc 1 17 0
  28              		.cfi_startproc
  29              		@ args = 0, pretend = 0, frame = 0
  30              		@ frame_needed = 0, uses_anonymous_args = 0
  31              		@ link register save eliminated.
  32 0000 7047     		bx	lr
  33              		.cfi_endproc
  34              	.LFE63:
  35              		.size	setup_lcd, .-setup_lcd
  36 0002 00BF     		.section	.text.update_lcd_it,"ax",%progbits
  37              		.align	2
  38              		.global	update_lcd_it
  39              		.thumb
  40              		.thumb_func
ARM GAS  C:\Users\Javier\AppData\Local\Temp\ccFmmNK3.s 			page 2


  41              		.type	update_lcd_it, %function
  42              	update_lcd_it:
  43              	.LFB64:
  18:.\gnome_lcd.c ****     #if (GNOME_LCD_MODULE_ACTIVE)
  19:.\gnome_lcd.c ****         I2C_Start();
  20:.\gnome_lcd.c ****         
  21:.\gnome_lcd.c ****         i2cLCD_Init(&lcd, GNOME_LCD_MODULE_I2C_ADDR, LCD_BACKLIGHTON);
  22:.\gnome_lcd.c ****         i2cLCD_SetPosition(&lcd, 0, 0);
  23:.\gnome_lcd.c ****         i2cLCD_Print(&lcd, GNOME_LCD_MODULE_MSG1);
  24:.\gnome_lcd.c ****         i2cLCD_SetPosition(&lcd, 1, 0);
  25:.\gnome_lcd.c ****         i2cLCD_Print(&lcd, GNOME_LCD_MODULE_MSG2);
  26:.\gnome_lcd.c ****         i2cLCD_SetBlink(&lcd,LCD_BLINKON);
  27:.\gnome_lcd.c ****         
  28:.\gnome_lcd.c ****         CySysTickStart();
  29:.\gnome_lcd.c ****         CySysTickSetCallback(4,(void*)update_lcd_it);
  30:.\gnome_lcd.c ****         lcd_update = 1;
  31:.\gnome_lcd.c **** 
  32:.\gnome_lcd.c ****     #endif
  33:.\gnome_lcd.c **** }
  34:.\gnome_lcd.c **** 
  35:.\gnome_lcd.c **** void update_lcd_it() {
  44              		.loc 1 35 0
  45              		.cfi_startproc
  46              		@ args = 0, pretend = 0, frame = 0
  47              		@ frame_needed = 0, uses_anonymous_args = 0
  48              		.loc 1 35 0
  49 0000 08B5     		push	{r3, lr}
  50              		.cfi_def_cfa_offset 8
  51              		.cfi_offset 3, -8
  52              		.cfi_offset 14, -4
  36:.\gnome_lcd.c ****     if ((CySysTickGetValue() & 0x3F) == 0x3F) {
  53              		.loc 1 36 0
  54 0002 FFF7FEFF 		bl	CySysTickGetValue
  55              	.LVL0:
  56 0006 00F03F00 		and	r0, r0, #63
  57 000a 3F28     		cmp	r0, #63
  58 000c 02D1     		bne	.L2
  37:.\gnome_lcd.c ****         lcd_update = 1;
  59              		.loc 1 37 0
  60 000e 0122     		movs	r2, #1
  61 0010 014B     		ldr	r3, .L5
  62 0012 1A70     		strb	r2, [r3]
  63              	.L2:
  64 0014 08BD     		pop	{r3, pc}
  65              	.L6:
  66 0016 00BF     		.align	2
  67              	.L5:
  68 0018 00000000 		.word	lcd_update
  69              		.cfi_endproc
  70              	.LFE64:
  71              		.size	update_lcd_it, .-update_lcd_it
  72              		.section	.text.update_lcd,"ax",%progbits
  73              		.align	2
  74              		.global	update_lcd
  75              		.thumb
  76              		.thumb_func
  77              		.type	update_lcd, %function
ARM GAS  C:\Users\Javier\AppData\Local\Temp\ccFmmNK3.s 			page 3


  78              	update_lcd:
  79              	.LFB65:
  38:.\gnome_lcd.c ****     }
  39:.\gnome_lcd.c **** }
  40:.\gnome_lcd.c **** 
  41:.\gnome_lcd.c **** void update_lcd() {
  80              		.loc 1 41 0
  81              		.cfi_startproc
  82              		@ args = 0, pretend = 0, frame = 0
  83              		@ frame_needed = 0, uses_anonymous_args = 0
  84              		@ link register save eliminated.
  85 0000 7047     		bx	lr
  86              		.cfi_endproc
  87              	.LFE65:
  88              		.size	update_lcd, .-update_lcd
  89              		.comm	lcd_update,1,1
  90              		.comm	lcd,134,4
  91 0002 00BF     		.text
  92              	.Letext0:
  93              		.file 2 "c:\\program files (x86)\\cypress\\psoc creator\\3.3\\psoc creator\\import\\gnu\\arm\\4.9.
  94              		.file 3 "c:\\program files (x86)\\cypress\\psoc creator\\3.3\\psoc creator\\import\\gnu\\arm\\4.9.
  95              		.file 4 "Generated_Source\\PSoC5/cytypes.h"
  96              		.file 5 ".\\i2cLCD.h"
  97              		.file 6 "Generated_Source\\PSoC5/core_cm3.h"
  98              		.file 7 ".\\gnome_lcd.h"
  99              		.file 8 "Generated_Source\\PSoC5/CyLib.h"