ARM GAS  C:\Users\Javier\AppData\Local\Temp\cc3wpAbK.s 			page 1


   1              		.syntax unified
   2              		.cpu cortex-m3
   3              		.fpu softvfp
   4              		.eabi_attribute 20, 1
   5              		.eabi_attribute 21, 1
   6              		.eabi_attribute 23, 3
   7              		.eabi_attribute 24, 1
   8              		.eabi_attribute 25, 1
   9              		.eabi_attribute 26, 1
  10              		.eabi_attribute 30, 1
  11              		.eabi_attribute 34, 1
  12              		.eabi_attribute 18, 4
  13              		.thumb
  14              		.file	"gnome_memory.c"
  15              		.text
  16              	.Ltext0:
  17              		.cfi_sections	.debug_frame
  18              		.section	.text.gnome_store_reg,"ax",%progbits
  19              		.align	2
  20              		.global	gnome_store_reg
  21              		.thumb
  22              		.thumb_func
  23              		.type	gnome_store_reg, %function
  24              	gnome_store_reg:
  25              	.LFB63:
  26              		.file 1 ".\\gnome_memory.c"
   1:.\gnome_memory.c **** /* ========================================
   2:.\gnome_memory.c ****  *
   3:.\gnome_memory.c ****  * Copyright YOUR COMPANY, THE YEAR
   4:.\gnome_memory.c ****  * All Rights Reserved
   5:.\gnome_memory.c ****  * UNPUBLISHED, LICENSED SOFTWARE.
   6:.\gnome_memory.c ****  *
   7:.\gnome_memory.c ****  * CONFIDENTIAL AND PROPRIETARY INFORMATION
   8:.\gnome_memory.c ****  * WHICH IS THE PROPERTY OF your company.
   9:.\gnome_memory.c ****  *
  10:.\gnome_memory.c ****  * ========================================
  11:.\gnome_memory.c **** */
  12:.\gnome_memory.c **** 
  13:.\gnome_memory.c **** #include "gnome_memory.h"
  14:.\gnome_memory.c **** 
  15:.\gnome_memory.c **** void gnome_store_reg(uint8_t regist) {
  27              		.loc 1 15 0
  28              		.cfi_startproc
  29              		@ args = 0, pretend = 0, frame = 0
  30              		@ frame_needed = 0, uses_anonymous_args = 0
  31              		@ link register save eliminated.
  32              	.LVL0:
  16:.\gnome_memory.c ****         reg8 *mem_mapped_reg;
  17:.\gnome_memory.c ****         uint8_t intermediateValue;
  18:.\gnome_memory.c ****         switch (regist & 0x0F) {
  33              		.loc 1 18 0
  34 0000 00F00F00 		and	r0, r0, #15
  35              	.LVL1:
  36 0004 A0F10A03 		sub	r3, r0, #10
  37 0008 052B     		cmp	r3, #5
  38 000a 00F2C180 		bhi	.L2
  39 000e DFE803F0 		tbb	[pc, r3]
ARM GAS  C:\Users\Javier\AppData\Local\Temp\cc3wpAbK.s 			page 2


  40              	.L4:
  41 0012 61       		.byte	(.L3-.L4)/2
  42 0013 7F       		.byte	(.L5-.L4)/2
  43 0014 9F       		.byte	(.L6-.L4)/2
  44 0015 03       		.byte	(.L7-.L4)/2
  45 0016 21       		.byte	(.L8-.L4)/2
  46 0017 41       		.byte	(.L9-.L4)/2
  47              		.p2align 1
  48              	.L7:
  19:.\gnome_memory.c ****             #if !defined(GNOME_VIA1_CONFIG_OUT_OPT_OUT) && GNOME_VIA1_ACTIVE /* Check for removal b
  20:.\gnome_memory.c ****             case GNOME_VIA1_CONFIG:
  21:.\gnome_memory.c ****                 if(via_state.config_mask & 0x80) {
  49              		.loc 1 21 0
  50 0018 614B     		ldr	r3, .L21
  51 001a 1B78     		ldrb	r3, [r3]	@ zero_extendqisi2
  52 001c DAB2     		uxtb	r2, r3
  53 001e 12F0800F 		tst	r2, #128
  54 0022 0FD0     		beq	.L10
  55              	.LVL2:
  22:.\gnome_memory.c ****                     mem_mapped_reg = GNOME_VIA1_CONFIG_OUT_ADDR;
  23:.\gnome_memory.c ****                     intermediateValue = *mem_mapped_reg & ~via_state.config_mask; // Ponemos a cero
  56              		.loc 1 23 0
  57 0024 5F48     		ldr	r0, .L21+4
  58 0026 0178     		ldrb	r1, [r0]	@ zero_extendqisi2
  59 0028 21EA0202 		bic	r2, r1, r2
  60              	.LVL3:
  24:.\gnome_memory.c ****                     *mem_mapped_reg = ((current_context->accumulator & via_state.config_mask) | int
  61              		.loc 1 24 0
  62 002c 5E49     		ldr	r1, .L21+8
  63 002e 0968     		ldr	r1, [r1]
  64 0030 0978     		ldrb	r1, [r1]	@ zero_extendqisi2
  65 0032 0B40     		ands	r3, r3, r1
  66 0034 1343     		orrs	r3, r3, r2
  67 0036 03F00F03 		and	r3, r3, #15
  68 003a 0370     		strb	r3, [r0]
  25:.\gnome_memory.c ****                     via_state.config_mask = 0;
  69              		.loc 1 25 0
  70 003c 0022     		movs	r2, #0
  71              	.LVL4:
  72 003e 584B     		ldr	r3, .L21
  73 0040 1A70     		strb	r2, [r3]
  74 0042 7047     		bx	lr
  75              	.LVL5:
  76              	.L10:
  26:.\gnome_memory.c ****                 } else {
  27:.\gnome_memory.c ****                     // 0x80 indica una petici칩n de escritura, incluso si la m치scara es cero.
  28:.\gnome_memory.c ****                     via_state.config_mask = current_context->accumulator | 0x80;
  77              		.loc 1 28 0
  78 0044 584B     		ldr	r3, .L21+8
  79 0046 1B68     		ldr	r3, [r3]
  80 0048 1B78     		ldrb	r3, [r3]	@ zero_extendqisi2
  81 004a 63F07F03 		orn	r3, r3, #127
  82 004e 544A     		ldr	r2, .L21
  83 0050 1370     		strb	r3, [r2]
  84 0052 7047     		bx	lr
  85              	.L8:
  86              	.LVL6:
ARM GAS  C:\Users\Javier\AppData\Local\Temp\cc3wpAbK.s 			page 3


  29:.\gnome_memory.c ****                 }
  30:.\gnome_memory.c ****                 break;
  31:.\gnome_memory.c ****             #endif
  32:.\gnome_memory.c ****             #if !defined(GNOME_VIA1_PORT0_OUT_OPT_OUT) && GNOME_VIA1_ACTIVE /* Check for removal by
  33:.\gnome_memory.c ****             case GNOME_VIA1_PORT0:
  34:.\gnome_memory.c ****                 mem_mapped_reg = GNOME_VIA1_PORT0_OUT_ADDR;
  35:.\gnome_memory.c ****                 if (via_state.port0_ptr) {
  87              		.loc 1 35 0
  88 0054 524B     		ldr	r3, .L21
  89 0056 5B78     		ldrb	r3, [r3, #1]	@ zero_extendqisi2
  90 0058 5BB1     		cbz	r3, .L12
  36:.\gnome_memory.c ****                     intermediateValue = 0x0F & *mem_mapped_reg;
  91              		.loc 1 36 0
  92 005a 544A     		ldr	r2, .L21+12
  93 005c 1378     		ldrb	r3, [r2]	@ zero_extendqisi2
  94 005e 03F00F03 		and	r3, r3, #15
  95              	.LVL7:
  37:.\gnome_memory.c ****                     *mem_mapped_reg =  (intermediateValue + (current_context->accumulator << 4));
  96              		.loc 1 37 0
  97 0062 5149     		ldr	r1, .L21+8
  98 0064 0968     		ldr	r1, [r1]
  99 0066 0978     		ldrb	r1, [r1]	@ zero_extendqisi2
 100 0068 03EB0113 		add	r3, r3, r1, lsl #4
 101              	.LVL8:
 102 006c DBB2     		uxtb	r3, r3
 103 006e 1370     		strb	r3, [r2]
 104 0070 09E0     		b	.L13
 105              	.L12:
  38:.\gnome_memory.c ****                 } else {
  39:.\gnome_memory.c ****                     intermediateValue = 0xF0 & *mem_mapped_reg;
 106              		.loc 1 39 0
 107 0072 4E4A     		ldr	r2, .L21+12
 108 0074 1378     		ldrb	r3, [r2]	@ zero_extendqisi2
 109 0076 03F0F003 		and	r3, r3, #240
 110              	.LVL9:
  40:.\gnome_memory.c ****                     *mem_mapped_reg =  (intermediateValue + current_context->accumulator);
 111              		.loc 1 40 0
 112 007a 4B49     		ldr	r1, .L21+8
 113 007c 0968     		ldr	r1, [r1]
 114 007e 0978     		ldrb	r1, [r1]	@ zero_extendqisi2
 115 0080 0B44     		add	r3, r3, r1
 116              	.LVL10:
 117 0082 DBB2     		uxtb	r3, r3
 118 0084 1370     		strb	r3, [r2]
 119              	.L13:
  41:.\gnome_memory.c ****                 }
  42:.\gnome_memory.c ****                 via_state.port0_ptr = !via_state.port0_ptr;
 120              		.loc 1 42 0
 121 0086 464A     		ldr	r2, .L21
 122 0088 5378     		ldrb	r3, [r2, #1]	@ zero_extendqisi2
 123 008a B3FA83F3 		clz	r3, r3
 124 008e 5B09     		lsrs	r3, r3, #5
 125 0090 5370     		strb	r3, [r2, #1]
  43:.\gnome_memory.c ****                 break;
 126              		.loc 1 43 0
 127 0092 7047     		bx	lr
 128              	.LVL11:
ARM GAS  C:\Users\Javier\AppData\Local\Temp\cc3wpAbK.s 			page 4


 129              	.L9:
  44:.\gnome_memory.c ****             #endif
  45:.\gnome_memory.c ****             #if !defined(GNOME_VIA1_PORT1_OUT_OPT_OUT)  && GNOME_VIA1_ACTIVE/* Check for removal by
  46:.\gnome_memory.c ****             case GNOME_VIA1_PORT1:
  47:.\gnome_memory.c ****                 mem_mapped_reg = GNOME_VIA1_PORT1_OUT_ADDR;
  48:.\gnome_memory.c ****                 if (via_state.port1_ptr) {
 130              		.loc 1 48 0
 131 0094 424B     		ldr	r3, .L21
 132 0096 9B78     		ldrb	r3, [r3, #2]	@ zero_extendqisi2
 133 0098 5BB1     		cbz	r3, .L14
  49:.\gnome_memory.c ****                     intermediateValue = 0x0F & *mem_mapped_reg;
 134              		.loc 1 49 0
 135 009a 454A     		ldr	r2, .L21+16
 136 009c 1378     		ldrb	r3, [r2]	@ zero_extendqisi2
 137 009e 03F00F03 		and	r3, r3, #15
 138              	.LVL12:
  50:.\gnome_memory.c ****                     *mem_mapped_reg =  (intermediateValue + (current_context->accumulator << 4));
 139              		.loc 1 50 0
 140 00a2 4149     		ldr	r1, .L21+8
 141 00a4 0968     		ldr	r1, [r1]
 142 00a6 0978     		ldrb	r1, [r1]	@ zero_extendqisi2
 143 00a8 03EB0113 		add	r3, r3, r1, lsl #4
 144              	.LVL13:
 145 00ac DBB2     		uxtb	r3, r3
 146 00ae 1370     		strb	r3, [r2]
 147 00b0 09E0     		b	.L15
 148              	.L14:
  51:.\gnome_memory.c ****                 } else {
  52:.\gnome_memory.c ****                     intermediateValue = 0xF0 & *mem_mapped_reg;
 149              		.loc 1 52 0
 150 00b2 3F4A     		ldr	r2, .L21+16
 151 00b4 1378     		ldrb	r3, [r2]	@ zero_extendqisi2
 152 00b6 03F0F003 		and	r3, r3, #240
 153              	.LVL14:
  53:.\gnome_memory.c ****                     *mem_mapped_reg =  (intermediateValue + current_context->accumulator);
 154              		.loc 1 53 0
 155 00ba 3B49     		ldr	r1, .L21+8
 156 00bc 0968     		ldr	r1, [r1]
 157 00be 0978     		ldrb	r1, [r1]	@ zero_extendqisi2
 158 00c0 0B44     		add	r3, r3, r1
 159              	.LVL15:
 160 00c2 DBB2     		uxtb	r3, r3
 161 00c4 1370     		strb	r3, [r2]
 162              	.L15:
  54:.\gnome_memory.c ****                 }
  55:.\gnome_memory.c ****                 via_state.port1_ptr = !via_state.port1_ptr;                
 163              		.loc 1 55 0
 164 00c6 364A     		ldr	r2, .L21
 165 00c8 9378     		ldrb	r3, [r2, #2]	@ zero_extendqisi2
 166 00ca B3FA83F3 		clz	r3, r3
 167 00ce 5B09     		lsrs	r3, r3, #5
 168 00d0 9370     		strb	r3, [r2, #2]
  56:.\gnome_memory.c ****                 break;
 169              		.loc 1 56 0
 170 00d2 7047     		bx	lr
 171              	.LVL16:
 172              	.L3:
ARM GAS  C:\Users\Javier\AppData\Local\Temp\cc3wpAbK.s 			page 5


  57:.\gnome_memory.c ****             #endif
  58:.\gnome_memory.c ****             #if !defined(GNOME_VIA2_CONFIG_OUT_OPT_OUT) && GNOME_VIA2_ACTIVE /* Check for removal b
  59:.\gnome_memory.c ****             case GNOME_VIA2_CONFIG:
  60:.\gnome_memory.c ****                 if(via_state.config_mask & 0x80) {
 173              		.loc 1 60 0
 174 00d4 324B     		ldr	r3, .L21
 175 00d6 1B78     		ldrb	r3, [r3]	@ zero_extendqisi2
 176 00d8 DAB2     		uxtb	r2, r3
 177 00da 12F0800F 		tst	r2, #128
 178 00de 0FD0     		beq	.L16
 179              	.LVL17:
  61:.\gnome_memory.c ****                     mem_mapped_reg = GNOME_VIA2_CONFIG_OUT_ADDR;
  62:.\gnome_memory.c ****                     intermediateValue = *mem_mapped_reg & ~via_state.config_mask; // Ponemos a cero
 180              		.loc 1 62 0
 181 00e0 3448     		ldr	r0, .L21+20
 182 00e2 0178     		ldrb	r1, [r0]	@ zero_extendqisi2
 183 00e4 21EA0202 		bic	r2, r1, r2
 184              	.LVL18:
  63:.\gnome_memory.c ****                     *mem_mapped_reg = ((current_context->accumulator & via_state.config_mask) | int
 185              		.loc 1 63 0
 186 00e8 2F49     		ldr	r1, .L21+8
 187 00ea 0968     		ldr	r1, [r1]
 188 00ec 0978     		ldrb	r1, [r1]	@ zero_extendqisi2
 189 00ee 0B40     		ands	r3, r3, r1
 190 00f0 1343     		orrs	r3, r3, r2
 191 00f2 03F00F03 		and	r3, r3, #15
 192 00f6 0370     		strb	r3, [r0]
  64:.\gnome_memory.c ****                     via_state.config_mask = 0;
 193              		.loc 1 64 0
 194 00f8 0022     		movs	r2, #0
 195              	.LVL19:
 196 00fa 294B     		ldr	r3, .L21
 197 00fc 1A70     		strb	r2, [r3]
 198 00fe 7047     		bx	lr
 199              	.LVL20:
 200              	.L16:
  65:.\gnome_memory.c ****                 } else {
  66:.\gnome_memory.c ****                     // 0x80 indica una petici칩n de escritura, incluso si la m치scara es cero.
  67:.\gnome_memory.c ****                     via_state.config_mask = current_context->accumulator | 0x80;
 201              		.loc 1 67 0
 202 0100 294B     		ldr	r3, .L21+8
 203 0102 1B68     		ldr	r3, [r3]
 204 0104 1B78     		ldrb	r3, [r3]	@ zero_extendqisi2
 205 0106 63F07F03 		orn	r3, r3, #127
 206 010a 254A     		ldr	r2, .L21
 207 010c 1370     		strb	r3, [r2]
 208 010e 7047     		bx	lr
 209              	.L5:
 210              	.LVL21:
  68:.\gnome_memory.c ****                 }
  69:.\gnome_memory.c ****                 break;
  70:.\gnome_memory.c ****             #endif
  71:.\gnome_memory.c ****             #if !defined(GNOME_VIA2_PORT0_OUT_OPT_OUT) && GNOME_VIA2_ACTIVE /* Check for removal by
  72:.\gnome_memory.c ****             case GNOME_VIA2_PORT0:
  73:.\gnome_memory.c ****                 mem_mapped_reg = GNOME_VIA2_PORT0_OUT_ADDR;
  74:.\gnome_memory.c ****                 if (via_state.port0_ptr) {
 211              		.loc 1 74 0
ARM GAS  C:\Users\Javier\AppData\Local\Temp\cc3wpAbK.s 			page 6


 212 0110 234B     		ldr	r3, .L21
 213 0112 5B78     		ldrb	r3, [r3, #1]	@ zero_extendqisi2
 214 0114 5BB1     		cbz	r3, .L17
  75:.\gnome_memory.c ****                     intermediateValue = 0x0F & *mem_mapped_reg;
 215              		.loc 1 75 0
 216 0116 284A     		ldr	r2, .L21+24
 217 0118 1378     		ldrb	r3, [r2]	@ zero_extendqisi2
 218 011a 03F00F03 		and	r3, r3, #15
 219              	.LVL22:
  76:.\gnome_memory.c ****                     *mem_mapped_reg =  (intermediateValue + (current_context->accumulator << 4));
 220              		.loc 1 76 0
 221 011e 2249     		ldr	r1, .L21+8
 222 0120 0968     		ldr	r1, [r1]
 223 0122 0978     		ldrb	r1, [r1]	@ zero_extendqisi2
 224 0124 03EB0113 		add	r3, r3, r1, lsl #4
 225              	.LVL23:
 226 0128 DBB2     		uxtb	r3, r3
 227 012a 1370     		strb	r3, [r2]
 228 012c 09E0     		b	.L18
 229              	.L17:
  77:.\gnome_memory.c ****                 } else {
  78:.\gnome_memory.c ****                     intermediateValue = 0xF0 & *mem_mapped_reg;
 230              		.loc 1 78 0
 231 012e 224A     		ldr	r2, .L21+24
 232 0130 1378     		ldrb	r3, [r2]	@ zero_extendqisi2
 233 0132 03F0F003 		and	r3, r3, #240
 234              	.LVL24:
  79:.\gnome_memory.c ****                     *mem_mapped_reg =  (intermediateValue + current_context->accumulator);
 235              		.loc 1 79 0
 236 0136 1C49     		ldr	r1, .L21+8
 237 0138 0968     		ldr	r1, [r1]
 238 013a 0978     		ldrb	r1, [r1]	@ zero_extendqisi2
 239 013c 0B44     		add	r3, r3, r1
 240              	.LVL25:
 241 013e DBB2     		uxtb	r3, r3
 242 0140 1370     		strb	r3, [r2]
 243              	.L18:
  80:.\gnome_memory.c ****                 }
  81:.\gnome_memory.c ****                 via_state.port0_ptr = !via_state.port0_ptr;
 244              		.loc 1 81 0
 245 0142 174A     		ldr	r2, .L21
 246 0144 5378     		ldrb	r3, [r2, #1]	@ zero_extendqisi2
 247 0146 B3FA83F3 		clz	r3, r3
 248 014a 5B09     		lsrs	r3, r3, #5
 249 014c 5370     		strb	r3, [r2, #1]
  82:.\gnome_memory.c ****                 break;
 250              		.loc 1 82 0
 251 014e 7047     		bx	lr
 252              	.LVL26:
 253              	.L6:
  83:.\gnome_memory.c ****             #endif
  84:.\gnome_memory.c ****             #if !defined(GNOME_VIA_PORT2_OUT_OPT_OUT)  && GNOME_VIA2_ACTIVE/* Check for removal by 
  85:.\gnome_memory.c ****             case GNOME_VIA2_PORT1:
  86:.\gnome_memory.c ****                 mem_mapped_reg = GNOME_VIA2_PORT1_OUT_ADDR;
  87:.\gnome_memory.c ****                 if (via_state.port1_ptr) {
 254              		.loc 1 87 0
 255 0150 134B     		ldr	r3, .L21
ARM GAS  C:\Users\Javier\AppData\Local\Temp\cc3wpAbK.s 			page 7


 256 0152 9B78     		ldrb	r3, [r3, #2]	@ zero_extendqisi2
 257 0154 5BB1     		cbz	r3, .L19
  88:.\gnome_memory.c ****                     intermediateValue = 0x0F & *mem_mapped_reg;
 258              		.loc 1 88 0
 259 0156 194A     		ldr	r2, .L21+28
 260 0158 1378     		ldrb	r3, [r2]	@ zero_extendqisi2
 261 015a 03F00F03 		and	r3, r3, #15
 262              	.LVL27:
  89:.\gnome_memory.c ****                     *mem_mapped_reg =  (intermediateValue + (current_context->accumulator << 4));
 263              		.loc 1 89 0
 264 015e 1249     		ldr	r1, .L21+8
 265 0160 0968     		ldr	r1, [r1]
 266 0162 0978     		ldrb	r1, [r1]	@ zero_extendqisi2
 267 0164 03EB0113 		add	r3, r3, r1, lsl #4
 268              	.LVL28:
 269 0168 DBB2     		uxtb	r3, r3
 270 016a 1370     		strb	r3, [r2]
 271 016c 09E0     		b	.L20
 272              	.L19:
  90:.\gnome_memory.c ****                 } else {
  91:.\gnome_memory.c ****                     intermediateValue = 0xF0 & *mem_mapped_reg;
 273              		.loc 1 91 0
 274 016e 134A     		ldr	r2, .L21+28
 275 0170 1378     		ldrb	r3, [r2]	@ zero_extendqisi2
 276 0172 03F0F003 		and	r3, r3, #240
 277              	.LVL29:
  92:.\gnome_memory.c ****                     *mem_mapped_reg =  (intermediateValue + current_context->accumulator);
 278              		.loc 1 92 0
 279 0176 0C49     		ldr	r1, .L21+8
 280 0178 0968     		ldr	r1, [r1]
 281 017a 0978     		ldrb	r1, [r1]	@ zero_extendqisi2
 282 017c 0B44     		add	r3, r3, r1
 283              	.LVL30:
 284 017e DBB2     		uxtb	r3, r3
 285 0180 1370     		strb	r3, [r2]
 286              	.L20:
  93:.\gnome_memory.c ****                 }
  94:.\gnome_memory.c ****                 via_state.port1_ptr = !via_state.port1_ptr;                
 287              		.loc 1 94 0
 288 0182 074A     		ldr	r2, .L21
 289 0184 9378     		ldrb	r3, [r2, #2]	@ zero_extendqisi2
 290 0186 B3FA83F3 		clz	r3, r3
 291 018a 5B09     		lsrs	r3, r3, #5
 292 018c 9370     		strb	r3, [r2, #2]
  95:.\gnome_memory.c ****                 break;
 293              		.loc 1 95 0
 294 018e 7047     		bx	lr
 295              	.LVL31:
 296              	.L2:
  96:.\gnome_memory.c ****             #endif
  97:.\gnome_memory.c ****             default:
  98:.\gnome_memory.c ****                 registers[regist & 0x0f] = current_context->accumulator & ((1<<GNOME_WORD_SIZE) -1)
 297              		.loc 1 98 0
 298 0190 054B     		ldr	r3, .L21+8
 299 0192 1B68     		ldr	r3, [r3]
 300 0194 1B78     		ldrb	r3, [r3]	@ zero_extendqisi2
 301 0196 03F00F03 		and	r3, r3, #15
ARM GAS  C:\Users\Javier\AppData\Local\Temp\cc3wpAbK.s 			page 8


 302 019a 094A     		ldr	r2, .L21+32
 303 019c 1354     		strb	r3, [r2, r0]
 304 019e 7047     		bx	lr
 305              	.L22:
 306              		.align	2
 307              	.L21:
 308 01a0 00000000 		.word	via_state
 309 01a4 7C640040 		.word	1073767548
 310 01a8 00000000 		.word	current_context
 311 01ac 7D640040 		.word	1073767549
 312 01b0 7B640040 		.word	1073767547
 313 01b4 7E640040 		.word	1073767550
 314 01b8 7F640040 		.word	1073767551
 315 01bc 7A640040 		.word	1073767546
 316 01c0 00000000 		.word	registers
 317              		.cfi_endproc
 318              	.LFE63:
 319              		.size	gnome_store_reg, .-gnome_store_reg
 320              		.section	.text.gnome_load_reg,"ax",%progbits
 321              		.align	2
 322              		.global	gnome_load_reg
 323              		.thumb
 324              		.thumb_func
 325              		.type	gnome_load_reg, %function
 326              	gnome_load_reg:
 327              	.LFB64:
  99:.\gnome_memory.c ****                 break;
 100:.\gnome_memory.c ****         }
 101:.\gnome_memory.c **** }
 102:.\gnome_memory.c **** 
 103:.\gnome_memory.c **** uint8_t gnome_load_reg(uint8_t regist) {
 328              		.loc 1 103 0
 329              		.cfi_startproc
 330              		@ args = 0, pretend = 0, frame = 0
 331              		@ frame_needed = 0, uses_anonymous_args = 0
 332              		@ link register save eliminated.
 333              	.LVL32:
 104:.\gnome_memory.c ****         reg8 *mem_mapped_reg;
 105:.\gnome_memory.c ****         uint8_t retVal;
 106:.\gnome_memory.c ****         switch (regist & 0xF) {
 334              		.loc 1 106 0
 335 0000 00F00F00 		and	r0, r0, #15
 336              	.LVL33:
 337 0004 A0F10A03 		sub	r3, r0, #10
 338 0008 052B     		cmp	r3, #5
 339 000a 52D8     		bhi	.L24
 340 000c DFE803F0 		tbb	[pc, r3]
 341              	.L26:
 342 0010 2A       		.byte	(.L25-.L26)/2
 343 0011 2F       		.byte	(.L27-.L26)/2
 344 0012 40       		.byte	(.L28-.L26)/2
 345 0013 03       		.byte	(.L29-.L26)/2
 346 0014 08       		.byte	(.L30-.L26)/2
 347 0015 19       		.byte	(.L31-.L26)/2
 348              		.p2align 1
 349              	.L29:
 350              	.LVL34:
ARM GAS  C:\Users\Javier\AppData\Local\Temp\cc3wpAbK.s 			page 9


 107:.\gnome_memory.c ****             #if !defined(GNOME_VIA1_CONFIG_IN_OPT_OUT) && GNOME_VIA1_ACTIVE /* Check for removal by
 108:.\gnome_memory.c ****             case GNOME_VIA1_CONFIG:
 109:.\gnome_memory.c ****                 mem_mapped_reg = GNOME_VIA1_CONFIG_IN_ADDR;
 110:.\gnome_memory.c ****                 retVal = (*mem_mapped_reg) & 0x0F;
 351              		.loc 1 110 0
 352 0016 294B     		ldr	r3, .L41
 353 0018 1878     		ldrb	r0, [r3]	@ zero_extendqisi2
 354 001a 00F00F00 		and	r0, r0, #15
 355              	.LVL35:
 111:.\gnome_memory.c ****                 break;
 356              		.loc 1 111 0
 357 001e 7047     		bx	lr
 358              	.LVL36:
 359              	.L30:
 112:.\gnome_memory.c ****             #endif
 113:.\gnome_memory.c ****             #if !defined(GNOME_VIA1_PORT0_IN_OPT_OUT) && GNOME_VIA1_ACTIVE /* Check for removal by 
 114:.\gnome_memory.c ****             case GNOME_VIA1_PORT0:
 115:.\gnome_memory.c ****                 mem_mapped_reg = GNOME_VIA1_PORT0_IN_ADDR;
 116:.\gnome_memory.c ****                 if (via_state.port0_ptr) {
 360              		.loc 1 116 0
 361 0020 274B     		ldr	r3, .L41+4
 362 0022 5B78     		ldrb	r3, [r3, #1]	@ zero_extendqisi2
 363 0024 1BB1     		cbz	r3, .L33
 117:.\gnome_memory.c ****                     retVal = (((*mem_mapped_reg) & 0xF0) >> 4) & ((1<<GNOME_WORD_SIZE) -1);
 364              		.loc 1 117 0
 365 0026 274A     		ldr	r2, .L41+8
 366 0028 1078     		ldrb	r0, [r2]	@ zero_extendqisi2
 367 002a 0009     		lsrs	r0, r0, #4
 368              	.LVL37:
 369 002c 03E0     		b	.L34
 370              	.LVL38:
 371              	.L33:
 118:.\gnome_memory.c ****                 } else {
 119:.\gnome_memory.c ****                     retVal = (*mem_mapped_reg) & ((1<<GNOME_WORD_SIZE) -1);
 372              		.loc 1 119 0
 373 002e 254A     		ldr	r2, .L41+8
 374 0030 1078     		ldrb	r0, [r2]	@ zero_extendqisi2
 375 0032 00F00F00 		and	r0, r0, #15
 376              	.LVL39:
 377              	.L34:
 120:.\gnome_memory.c ****                 }
 121:.\gnome_memory.c ****                 via_state.port0_ptr = !via_state.port0_ptr;
 378              		.loc 1 121 0
 379 0036 B3FA83F3 		clz	r3, r3
 380 003a 5B09     		lsrs	r3, r3, #5
 381 003c 204A     		ldr	r2, .L41+4
 382 003e 5370     		strb	r3, [r2, #1]
 122:.\gnome_memory.c ****                 break;
 383              		.loc 1 122 0
 384 0040 7047     		bx	lr
 385              	.LVL40:
 386              	.L31:
 123:.\gnome_memory.c ****             #endif
 124:.\gnome_memory.c ****             #if !defined(GNOME_VIA1_PORT1_IN_OPT_OUT) && GNOME_VIA1_ACTIVE /* Check for removal by 
 125:.\gnome_memory.c ****             case GNOME_VIA1_PORT1:
 126:.\gnome_memory.c ****                 mem_mapped_reg = GNOME_VIA1_PORT1_IN_ADDR;
 127:.\gnome_memory.c ****                 if (via_state.port1_ptr) {
ARM GAS  C:\Users\Javier\AppData\Local\Temp\cc3wpAbK.s 			page 10


 387              		.loc 1 127 0
 388 0042 1F4B     		ldr	r3, .L41+4
 389 0044 9B78     		ldrb	r3, [r3, #2]	@ zero_extendqisi2
 390 0046 1BB1     		cbz	r3, .L35
 128:.\gnome_memory.c ****                     retVal = (((*mem_mapped_reg) & 0xF0) >> 4) & ((1<<GNOME_WORD_SIZE) -1);
 391              		.loc 1 128 0
 392 0048 1F4A     		ldr	r2, .L41+12
 393 004a 1078     		ldrb	r0, [r2]	@ zero_extendqisi2
 394 004c 0009     		lsrs	r0, r0, #4
 395              	.LVL41:
 396 004e 03E0     		b	.L36
 397              	.LVL42:
 398              	.L35:
 129:.\gnome_memory.c ****                 } else {
 130:.\gnome_memory.c ****                     retVal = (*mem_mapped_reg) & ((1<<GNOME_WORD_SIZE) -1);
 399              		.loc 1 130 0
 400 0050 1D4A     		ldr	r2, .L41+12
 401 0052 1078     		ldrb	r0, [r2]	@ zero_extendqisi2
 402 0054 00F00F00 		and	r0, r0, #15
 403              	.LVL43:
 404              	.L36:
 131:.\gnome_memory.c ****                 }
 132:.\gnome_memory.c ****                 via_state.port1_ptr = !via_state.port1_ptr;                
 405              		.loc 1 132 0
 406 0058 B3FA83F3 		clz	r3, r3
 407 005c 5B09     		lsrs	r3, r3, #5
 408 005e 184A     		ldr	r2, .L41+4
 409 0060 9370     		strb	r3, [r2, #2]
 133:.\gnome_memory.c ****                 break;
 410              		.loc 1 133 0
 411 0062 7047     		bx	lr
 412              	.LVL44:
 413              	.L25:
 134:.\gnome_memory.c ****             #endif
 135:.\gnome_memory.c ****             #if !defined(GNOME_VIA2_CONFIG_IN_OPT_OUT) && GNOME_VIA2_ACTIVE /* Check for removal by
 136:.\gnome_memory.c ****             case GNOME_VIA2_CONFIG:
 137:.\gnome_memory.c ****                 mem_mapped_reg = GNOME_VIA2_CONFIG_IN_ADDR;
 138:.\gnome_memory.c ****                 retVal = (*mem_mapped_reg) & 0x0F;
 414              		.loc 1 138 0
 415 0064 194B     		ldr	r3, .L41+16
 416 0066 1878     		ldrb	r0, [r3]	@ zero_extendqisi2
 417 0068 00F00F00 		and	r0, r0, #15
 418              	.LVL45:
 139:.\gnome_memory.c ****                 break;
 419              		.loc 1 139 0
 420 006c 7047     		bx	lr
 421              	.LVL46:
 422              	.L27:
 140:.\gnome_memory.c ****             #endif
 141:.\gnome_memory.c ****             #if !defined(GNOME_VIA2_PORT0_IN_OPT_OUT) && GNOME_VIA2_ACTIVE /* Check for removal by 
 142:.\gnome_memory.c ****             case GNOME_VIA2_PORT0:
 143:.\gnome_memory.c ****                 mem_mapped_reg = GNOME_VIA2_PORT0_IN_ADDR;
 144:.\gnome_memory.c ****                 if (via_state.port0_ptr) {
 423              		.loc 1 144 0
 424 006e 144B     		ldr	r3, .L41+4
 425 0070 5B78     		ldrb	r3, [r3, #1]	@ zero_extendqisi2
 426 0072 1BB1     		cbz	r3, .L37
ARM GAS  C:\Users\Javier\AppData\Local\Temp\cc3wpAbK.s 			page 11


 145:.\gnome_memory.c ****                     retVal = (((*mem_mapped_reg) & 0xF0) >> 4) & ((1<<GNOME_WORD_SIZE) -1);
 427              		.loc 1 145 0
 428 0074 164A     		ldr	r2, .L41+20
 429 0076 1078     		ldrb	r0, [r2]	@ zero_extendqisi2
 430 0078 0009     		lsrs	r0, r0, #4
 431              	.LVL47:
 432 007a 03E0     		b	.L38
 433              	.LVL48:
 434              	.L37:
 146:.\gnome_memory.c ****                 } else {
 147:.\gnome_memory.c ****                     retVal = (*mem_mapped_reg) & ((1<<GNOME_WORD_SIZE) -1);
 435              		.loc 1 147 0
 436 007c 144A     		ldr	r2, .L41+20
 437 007e 1078     		ldrb	r0, [r2]	@ zero_extendqisi2
 438 0080 00F00F00 		and	r0, r0, #15
 439              	.LVL49:
 440              	.L38:
 148:.\gnome_memory.c ****                 }
 149:.\gnome_memory.c ****                 via_state.port0_ptr = !via_state.port0_ptr;
 441              		.loc 1 149 0
 442 0084 B3FA83F3 		clz	r3, r3
 443 0088 5B09     		lsrs	r3, r3, #5
 444 008a 0D4A     		ldr	r2, .L41+4
 445 008c 5370     		strb	r3, [r2, #1]
 150:.\gnome_memory.c ****                 break;
 446              		.loc 1 150 0
 447 008e 7047     		bx	lr
 448              	.LVL50:
 449              	.L28:
 151:.\gnome_memory.c ****             #endif
 152:.\gnome_memory.c ****             #if !defined(GNOME_VIA2_PORT1_IN_OPT_OUT) && GNOME_VIA2_ACTIVE /* Check for removal by 
 153:.\gnome_memory.c ****             case GNOME_VIA2_PORT1:
 154:.\gnome_memory.c ****                 mem_mapped_reg = GNOME_VIA2_PORT1_IN_ADDR;
 155:.\gnome_memory.c ****                 if (via_state.port1_ptr) {
 450              		.loc 1 155 0
 451 0090 0B4B     		ldr	r3, .L41+4
 452 0092 9B78     		ldrb	r3, [r3, #2]	@ zero_extendqisi2
 453 0094 1BB1     		cbz	r3, .L39
 156:.\gnome_memory.c ****                     retVal = (((*mem_mapped_reg) & 0xF0) >> 4) & ((1<<GNOME_WORD_SIZE) -1);
 454              		.loc 1 156 0
 455 0096 0F4A     		ldr	r2, .L41+24
 456 0098 1078     		ldrb	r0, [r2]	@ zero_extendqisi2
 457 009a 0009     		lsrs	r0, r0, #4
 458              	.LVL51:
 459 009c 03E0     		b	.L40
 460              	.LVL52:
 461              	.L39:
 157:.\gnome_memory.c ****                 } else {
 158:.\gnome_memory.c ****                     retVal = (*mem_mapped_reg) & ((1<<GNOME_WORD_SIZE) -1);
 462              		.loc 1 158 0
 463 009e 0D4A     		ldr	r2, .L41+24
 464 00a0 1078     		ldrb	r0, [r2]	@ zero_extendqisi2
 465 00a2 00F00F00 		and	r0, r0, #15
 466              	.LVL53:
 467              	.L40:
 159:.\gnome_memory.c ****                 }
 160:.\gnome_memory.c ****                 via_state.port1_ptr = !via_state.port1_ptr;                
ARM GAS  C:\Users\Javier\AppData\Local\Temp\cc3wpAbK.s 			page 12


 468              		.loc 1 160 0
 469 00a6 B3FA83F3 		clz	r3, r3
 470 00aa 5B09     		lsrs	r3, r3, #5
 471 00ac 044A     		ldr	r2, .L41+4
 472 00ae 9370     		strb	r3, [r2, #2]
 161:.\gnome_memory.c ****                 break;
 473              		.loc 1 161 0
 474 00b0 7047     		bx	lr
 475              	.LVL54:
 476              	.L24:
 162:.\gnome_memory.c ****             #endif
 163:.\gnome_memory.c ****             default:
 164:.\gnome_memory.c ****                retVal = registers[regist & 0x0F] &((1<<GNOME_WORD_SIZE) -1);
 477              		.loc 1 164 0
 478 00b2 094B     		ldr	r3, .L41+28
 479 00b4 185C     		ldrb	r0, [r3, r0]	@ zero_extendqisi2
 480 00b6 00F00F00 		and	r0, r0, #15
 481              	.LVL55:
 165:.\gnome_memory.c ****                 break;
 166:.\gnome_memory.c ****         }
 167:.\gnome_memory.c ****         return retVal;
 168:.\gnome_memory.c **** }
 482              		.loc 1 168 0
 483 00ba 7047     		bx	lr
 484              	.L42:
 485              		.align	2
 486              	.L41:
 487 00bc 6C640040 		.word	1073767532
 488 00c0 00000000 		.word	via_state
 489 00c4 6D640040 		.word	1073767533
 490 00c8 6B640040 		.word	1073767531
 491 00cc 6E640040 		.word	1073767534
 492 00d0 6F640040 		.word	1073767535
 493 00d4 6A640040 		.word	1073767530
 494 00d8 00000000 		.word	registers
 495              		.cfi_endproc
 496              	.LFE64:
 497              		.size	gnome_load_reg, .-gnome_load_reg
 498              		.section	.text.gnome_debug_load_reg,"ax",%progbits
 499              		.align	2
 500              		.global	gnome_debug_load_reg
 501              		.thumb
 502              		.thumb_func
 503              		.type	gnome_debug_load_reg, %function
 504              	gnome_debug_load_reg:
 505              	.LFB65:
 169:.\gnome_memory.c **** 
 170:.\gnome_memory.c **** 
 171:.\gnome_memory.c **** uint8_t gnome_debug_load_reg(uint8_t regist) {
 506              		.loc 1 171 0
 507              		.cfi_startproc
 508              		@ args = 0, pretend = 0, frame = 0
 509              		@ frame_needed = 0, uses_anonymous_args = 0
 510              		@ link register save eliminated.
 511              	.LVL56:
 172:.\gnome_memory.c ****         reg8 *mem_mapped_reg;
 173:.\gnome_memory.c ****         uint8_t retVal;
ARM GAS  C:\Users\Javier\AppData\Local\Temp\cc3wpAbK.s 			page 13


 174:.\gnome_memory.c ****         switch (regist & 0xF) {
 512              		.loc 1 174 0
 513 0000 00F00F00 		and	r0, r0, #15
 514              	.LVL57:
 515 0004 A0F10A03 		sub	r3, r0, #10
 516 0008 052B     		cmp	r3, #5
 517 000a 1CD8     		bhi	.L44
 518 000c DFE803F0 		tbb	[pc, r3]
 519              	.L46:
 520 0010 0F       		.byte	(.L45-.L46)/2
 521 0011 13       		.byte	(.L47-.L46)/2
 522 0012 17       		.byte	(.L48-.L46)/2
 523 0013 03       		.byte	(.L49-.L46)/2
 524 0014 07       		.byte	(.L50-.L46)/2
 525 0015 0B       		.byte	(.L51-.L46)/2
 526              		.p2align 1
 527              	.L49:
 528              	.LVL58:
 175:.\gnome_memory.c ****             #if !defined(GNOME_VIA1_CONFIG_IN_OPT_OUT) && GNOME_VIA1_ACTIVE /* Check for removal by
 176:.\gnome_memory.c ****             case GNOME_VIA1_CONFIG:
 177:.\gnome_memory.c ****                 mem_mapped_reg = GNOME_VIA1_CONFIG_IN_ADDR;
 178:.\gnome_memory.c ****                 retVal = *mem_mapped_reg;
 529              		.loc 1 178 0
 530 0016 0E4B     		ldr	r3, .L53
 531 0018 1878     		ldrb	r0, [r3]	@ zero_extendqisi2
 532 001a C0B2     		uxtb	r0, r0
 533              	.LVL59:
 179:.\gnome_memory.c ****                 break;
 534              		.loc 1 179 0
 535 001c 7047     		bx	lr
 536              	.LVL60:
 537              	.L50:
 180:.\gnome_memory.c ****             #endif
 181:.\gnome_memory.c ****             #if !defined(GNOME_VIA1_PORT0_IN_OPT_OUT) && GNOME_VIA1_ACTIVE /* Check for removal by 
 182:.\gnome_memory.c ****             case GNOME_VIA1_PORT0:
 183:.\gnome_memory.c ****                 mem_mapped_reg = GNOME_VIA1_PORT0_IN_ADDR;
 184:.\gnome_memory.c ****                 retVal = *mem_mapped_reg;
 538              		.loc 1 184 0
 539 001e 0D4B     		ldr	r3, .L53+4
 540 0020 1878     		ldrb	r0, [r3]	@ zero_extendqisi2
 541 0022 C0B2     		uxtb	r0, r0
 542              	.LVL61:
 185:.\gnome_memory.c ****                 break;
 543              		.loc 1 185 0
 544 0024 7047     		bx	lr
 545              	.LVL62:
 546              	.L51:
 186:.\gnome_memory.c ****             #endif
 187:.\gnome_memory.c ****             #if !defined(GNOME_VIA1_PORT1_IN_OPT_OUT) && GNOME_VIA1_ACTIVE /* Check for removal by 
 188:.\gnome_memory.c ****             case GNOME_VIA1_PORT1:
 189:.\gnome_memory.c ****                 mem_mapped_reg = GNOME_VIA1_PORT1_IN_ADDR;
 190:.\gnome_memory.c ****                 retVal = *mem_mapped_reg;
 547              		.loc 1 190 0
 548 0026 0C4B     		ldr	r3, .L53+8
 549 0028 1878     		ldrb	r0, [r3]	@ zero_extendqisi2
 550 002a C0B2     		uxtb	r0, r0
 551              	.LVL63:
ARM GAS  C:\Users\Javier\AppData\Local\Temp\cc3wpAbK.s 			page 14


 191:.\gnome_memory.c ****                 break;
 552              		.loc 1 191 0
 553 002c 7047     		bx	lr
 554              	.LVL64:
 555              	.L45:
 192:.\gnome_memory.c ****             #endif
 193:.\gnome_memory.c ****             #if !defined(GNOME_VIA2_CONFIG_IN_OPT_OUT) && GNOME_VIA2_ACTIVE /* Check for removal by
 194:.\gnome_memory.c ****             case GNOME_VIA2_CONFIG:
 195:.\gnome_memory.c ****                 mem_mapped_reg = GNOME_VIA2_CONFIG_IN_ADDR;
 196:.\gnome_memory.c ****                 retVal = *mem_mapped_reg;
 556              		.loc 1 196 0
 557 002e 0B4B     		ldr	r3, .L53+12
 558 0030 1878     		ldrb	r0, [r3]	@ zero_extendqisi2
 559 0032 C0B2     		uxtb	r0, r0
 560              	.LVL65:
 197:.\gnome_memory.c ****                 break;
 561              		.loc 1 197 0
 562 0034 7047     		bx	lr
 563              	.LVL66:
 564              	.L47:
 198:.\gnome_memory.c ****             #endif
 199:.\gnome_memory.c ****             #if !defined(GNOME_VIA2_PORT0_IN_OPT_OUT) && GNOME_VIA2_ACTIVE /* Check for removal by 
 200:.\gnome_memory.c ****             case GNOME_VIA2_PORT0:
 201:.\gnome_memory.c ****                 mem_mapped_reg = GNOME_VIA2_PORT0_IN_ADDR;
 202:.\gnome_memory.c ****                 retVal = *mem_mapped_reg;
 565              		.loc 1 202 0
 566 0036 0A4B     		ldr	r3, .L53+16
 567 0038 1878     		ldrb	r0, [r3]	@ zero_extendqisi2
 568 003a C0B2     		uxtb	r0, r0
 569              	.LVL67:
 203:.\gnome_memory.c ****                 break;
 570              		.loc 1 203 0
 571 003c 7047     		bx	lr
 572              	.LVL68:
 573              	.L48:
 204:.\gnome_memory.c ****             #endif
 205:.\gnome_memory.c ****             #if !defined(GNOME_VIA2_PORT1_IN_OPT_OUT) && GNOME_VIA2_ACTIVE /* Check for removal by 
 206:.\gnome_memory.c ****             case GNOME_VIA2_PORT1:
 207:.\gnome_memory.c ****                 mem_mapped_reg = GNOME_VIA2_PORT1_IN_ADDR;
 208:.\gnome_memory.c ****                 retVal = *mem_mapped_reg;
 574              		.loc 1 208 0
 575 003e 094B     		ldr	r3, .L53+20
 576 0040 1878     		ldrb	r0, [r3]	@ zero_extendqisi2
 577 0042 C0B2     		uxtb	r0, r0
 578              	.LVL69:
 209:.\gnome_memory.c ****                 break;
 579              		.loc 1 209 0
 580 0044 7047     		bx	lr
 581              	.LVL70:
 582              	.L44:
 210:.\gnome_memory.c ****             #endif
 211:.\gnome_memory.c ****             default:
 212:.\gnome_memory.c ****                retVal = registers[regist & 0x0F] &((1<<GNOME_WORD_SIZE) -1);
 583              		.loc 1 212 0
 584 0046 084B     		ldr	r3, .L53+24
 585 0048 185C     		ldrb	r0, [r3, r0]	@ zero_extendqisi2
 586 004a 00F00F00 		and	r0, r0, #15
ARM GAS  C:\Users\Javier\AppData\Local\Temp\cc3wpAbK.s 			page 15


 587              	.LVL71:
 213:.\gnome_memory.c ****                 break;
 214:.\gnome_memory.c ****         }
 215:.\gnome_memory.c ****         return retVal;
 216:.\gnome_memory.c **** }
 588              		.loc 1 216 0
 589 004e 7047     		bx	lr
 590              	.L54:
 591              		.align	2
 592              	.L53:
 593 0050 6C640040 		.word	1073767532
 594 0054 6D640040 		.word	1073767533
 595 0058 6B640040 		.word	1073767531
 596 005c 6E640040 		.word	1073767534
 597 0060 6F640040 		.word	1073767535
 598 0064 6A640040 		.word	1073767530
 599 0068 00000000 		.word	registers
 600              		.cfi_endproc
 601              	.LFE65:
 602              		.size	gnome_debug_load_reg, .-gnome_debug_load_reg
 603              		.comm	via_state,3,4
 604              		.comm	rom,256,4
 605              		.comm	registers,16,4
 606              		.comm	current_context,4,4
 607              		.comm	it_context,11,4
 608              		.comm	normal_context,11,4
 609              		.text
 610              	.Letext0:
 611              		.file 2 "c:\\program files (x86)\\cypress\\psoc creator\\3.3\\psoc creator\\import\\gnu\\arm\\4.9.
 612              		.file 3 "c:\\program files (x86)\\cypress\\psoc creator\\3.3\\psoc creator\\import\\gnu\\arm\\4.9.
 613              		.file 4 "Generated_Source\\PSoC5/cytypes.h"
 614              		.file 5 ".\\gnome_registers.h"
 615              		.file 6 ".\\gnome_memory.h"
 616              		.file 7 "Generated_Source\\PSoC5/core_cm3.h"